ARM GAS  C:\Users\ADMH2\AppData\Local\Temp\ccnv6mNa.s 			page 1


   1              		.syntax unified
   2              		.cpu cortex-m3
   3              		.fpu softvfp
   4              		.eabi_attribute 20, 1
   5              		.eabi_attribute 21, 1
   6              		.eabi_attribute 23, 3
   7              		.eabi_attribute 24, 1
   8              		.eabi_attribute 25, 1
   9              		.eabi_attribute 26, 1
  10              		.eabi_attribute 30, 1
  11              		.eabi_attribute 34, 1
  12              		.eabi_attribute 18, 4
  13              		.thumb
  14              		.syntax unified
  15              		.file	"cyfitter_cfg.c"
  16              		.text
  17              	.Ltext0:
  18              		.cfi_sections	.debug_frame
  19              		.section	.text.CyClockStartupError,"ax",%progbits
  20              		.align	2
  21              		.thumb
  22              		.thumb_func
  23              		.type	CyClockStartupError, %function
  24              	CyClockStartupError:
  25              	.LFB3:
  26              		.file 1 "Generated_Source\\PSoC5\\cyfitter_cfg.c"
   1:Generated_Source\PSoC5/cyfitter_cfg.c **** 
   2:Generated_Source\PSoC5/cyfitter_cfg.c **** /*******************************************************************************
   3:Generated_Source\PSoC5/cyfitter_cfg.c **** * File Name: cyfitter_cfg.c
   4:Generated_Source\PSoC5/cyfitter_cfg.c **** * 
   5:Generated_Source\PSoC5/cyfitter_cfg.c **** * PSoC Creator  4.4
   6:Generated_Source\PSoC5/cyfitter_cfg.c **** *
   7:Generated_Source\PSoC5/cyfitter_cfg.c **** * Description:
   8:Generated_Source\PSoC5/cyfitter_cfg.c **** * This file contains device initialization code.
   9:Generated_Source\PSoC5/cyfitter_cfg.c **** * Except for the user defined sections in CyClockStartupError(), this file should not be modified.
  10:Generated_Source\PSoC5/cyfitter_cfg.c **** * This file is automatically generated by PSoC Creator.
  11:Generated_Source\PSoC5/cyfitter_cfg.c **** *
  12:Generated_Source\PSoC5/cyfitter_cfg.c **** ********************************************************************************
  13:Generated_Source\PSoC5/cyfitter_cfg.c **** * Copyright (c) 2007-2020 Cypress Semiconductor.  All rights reserved.
  14:Generated_Source\PSoC5/cyfitter_cfg.c **** * You may use this file only in accordance with the license, terms, conditions, 
  15:Generated_Source\PSoC5/cyfitter_cfg.c **** * disclaimers, and limitations in the end user license agreement accompanying 
  16:Generated_Source\PSoC5/cyfitter_cfg.c **** * the software package with which this file was provided.
  17:Generated_Source\PSoC5/cyfitter_cfg.c **** ********************************************************************************/
  18:Generated_Source\PSoC5/cyfitter_cfg.c **** 
  19:Generated_Source\PSoC5/cyfitter_cfg.c **** #include <string.h>
  20:Generated_Source\PSoC5/cyfitter_cfg.c **** #include "cytypes.h"
  21:Generated_Source\PSoC5/cyfitter_cfg.c **** #include "cydevice_trm.h"
  22:Generated_Source\PSoC5/cyfitter_cfg.c **** #include "cyfitter.h"
  23:Generated_Source\PSoC5/cyfitter_cfg.c **** #include "CyLib.h"
  24:Generated_Source\PSoC5/cyfitter_cfg.c **** #include "cyfitter_cfg.h"
  25:Generated_Source\PSoC5/cyfitter_cfg.c **** #include "cyapicallbacks.h"
  26:Generated_Source\PSoC5/cyfitter_cfg.c **** 
  27:Generated_Source\PSoC5/cyfitter_cfg.c **** #define CY_NEED_CYCLOCKSTARTUPERROR 1
  28:Generated_Source\PSoC5/cyfitter_cfg.c **** 
  29:Generated_Source\PSoC5/cyfitter_cfg.c **** 
  30:Generated_Source\PSoC5/cyfitter_cfg.c **** #if defined(__GNUC__) || defined(__ARMCC_VERSION)
  31:Generated_Source\PSoC5/cyfitter_cfg.c ****     #define CYPACKED 
ARM GAS  C:\Users\ADMH2\AppData\Local\Temp\ccnv6mNa.s 			page 2


  32:Generated_Source\PSoC5/cyfitter_cfg.c ****     #define CYPACKED_ATTR __attribute__ ((packed))
  33:Generated_Source\PSoC5/cyfitter_cfg.c ****     #define CYALIGNED __attribute__ ((aligned))
  34:Generated_Source\PSoC5/cyfitter_cfg.c ****     #define CY_CFG_UNUSED __attribute__ ((unused))
  35:Generated_Source\PSoC5/cyfitter_cfg.c ****     #ifndef CY_CFG_SECTION
  36:Generated_Source\PSoC5/cyfitter_cfg.c ****         #define CY_CFG_SECTION __attribute__ ((section(".psocinit")))
  37:Generated_Source\PSoC5/cyfitter_cfg.c ****     #endif
  38:Generated_Source\PSoC5/cyfitter_cfg.c ****     
  39:Generated_Source\PSoC5/cyfitter_cfg.c ****     #if defined(__ARMCC_VERSION)
  40:Generated_Source\PSoC5/cyfitter_cfg.c ****         #define CY_CFG_MEMORY_BARRIER() __memory_changed()
  41:Generated_Source\PSoC5/cyfitter_cfg.c ****     #else
  42:Generated_Source\PSoC5/cyfitter_cfg.c ****         #define CY_CFG_MEMORY_BARRIER() __sync_synchronize()
  43:Generated_Source\PSoC5/cyfitter_cfg.c ****     #endif
  44:Generated_Source\PSoC5/cyfitter_cfg.c ****     
  45:Generated_Source\PSoC5/cyfitter_cfg.c **** #elif defined(__ICCARM__)
  46:Generated_Source\PSoC5/cyfitter_cfg.c ****     #include <intrinsics.h>
  47:Generated_Source\PSoC5/cyfitter_cfg.c **** 
  48:Generated_Source\PSoC5/cyfitter_cfg.c ****     #define CYPACKED __packed
  49:Generated_Source\PSoC5/cyfitter_cfg.c ****     #define CYPACKED_ATTR 
  50:Generated_Source\PSoC5/cyfitter_cfg.c ****     #define CYALIGNED _Pragma("data_alignment=4")
  51:Generated_Source\PSoC5/cyfitter_cfg.c ****     #define CY_CFG_UNUSED _Pragma("diag_suppress=Pe177")
  52:Generated_Source\PSoC5/cyfitter_cfg.c ****     #define CY_CFG_SECTION _Pragma("location=\".psocinit\"")
  53:Generated_Source\PSoC5/cyfitter_cfg.c ****     
  54:Generated_Source\PSoC5/cyfitter_cfg.c ****     #define CY_CFG_MEMORY_BARRIER() __DMB()
  55:Generated_Source\PSoC5/cyfitter_cfg.c ****     
  56:Generated_Source\PSoC5/cyfitter_cfg.c **** #else
  57:Generated_Source\PSoC5/cyfitter_cfg.c ****     #error Unsupported toolchain
  58:Generated_Source\PSoC5/cyfitter_cfg.c **** #endif
  59:Generated_Source\PSoC5/cyfitter_cfg.c **** 
  60:Generated_Source\PSoC5/cyfitter_cfg.c **** #ifndef CYCODE
  61:Generated_Source\PSoC5/cyfitter_cfg.c ****     #define CYCODE
  62:Generated_Source\PSoC5/cyfitter_cfg.c **** #endif
  63:Generated_Source\PSoC5/cyfitter_cfg.c **** #ifndef CYDATA
  64:Generated_Source\PSoC5/cyfitter_cfg.c ****     #define CYDATA
  65:Generated_Source\PSoC5/cyfitter_cfg.c **** #endif
  66:Generated_Source\PSoC5/cyfitter_cfg.c **** #ifndef CYFAR
  67:Generated_Source\PSoC5/cyfitter_cfg.c ****     #define CYFAR
  68:Generated_Source\PSoC5/cyfitter_cfg.c **** #endif
  69:Generated_Source\PSoC5/cyfitter_cfg.c **** #ifndef CYXDATA
  70:Generated_Source\PSoC5/cyfitter_cfg.c ****     #define CYXDATA
  71:Generated_Source\PSoC5/cyfitter_cfg.c **** #endif
  72:Generated_Source\PSoC5/cyfitter_cfg.c **** 
  73:Generated_Source\PSoC5/cyfitter_cfg.c **** 
  74:Generated_Source\PSoC5/cyfitter_cfg.c **** CY_CFG_UNUSED
  75:Generated_Source\PSoC5/cyfitter_cfg.c **** static void CYMEMZERO(void *s, size_t n);
  76:Generated_Source\PSoC5/cyfitter_cfg.c **** CY_CFG_UNUSED
  77:Generated_Source\PSoC5/cyfitter_cfg.c **** static void CYMEMZERO(void *s, size_t n)
  78:Generated_Source\PSoC5/cyfitter_cfg.c **** {
  79:Generated_Source\PSoC5/cyfitter_cfg.c **** 	(void)memset(s, 0, n);
  80:Generated_Source\PSoC5/cyfitter_cfg.c **** }
  81:Generated_Source\PSoC5/cyfitter_cfg.c **** CY_CFG_UNUSED
  82:Generated_Source\PSoC5/cyfitter_cfg.c **** static void CYCONFIGCPY(void *dest, const void *src, size_t n);
  83:Generated_Source\PSoC5/cyfitter_cfg.c **** CY_CFG_UNUSED
  84:Generated_Source\PSoC5/cyfitter_cfg.c **** static void CYCONFIGCPY(void *dest, const void *src, size_t n)
  85:Generated_Source\PSoC5/cyfitter_cfg.c **** {
  86:Generated_Source\PSoC5/cyfitter_cfg.c **** 	(void)memcpy(dest, src, n);
  87:Generated_Source\PSoC5/cyfitter_cfg.c **** }
  88:Generated_Source\PSoC5/cyfitter_cfg.c **** CY_CFG_UNUSED
ARM GAS  C:\Users\ADMH2\AppData\Local\Temp\ccnv6mNa.s 			page 3


  89:Generated_Source\PSoC5/cyfitter_cfg.c **** static void CYCONFIGCPYCODE(void *dest, const void *src, size_t n);
  90:Generated_Source\PSoC5/cyfitter_cfg.c **** CY_CFG_UNUSED
  91:Generated_Source\PSoC5/cyfitter_cfg.c **** static void CYCONFIGCPYCODE(void *dest, const void *src, size_t n)
  92:Generated_Source\PSoC5/cyfitter_cfg.c **** {
  93:Generated_Source\PSoC5/cyfitter_cfg.c **** 	(void)memcpy(dest, src, n);
  94:Generated_Source\PSoC5/cyfitter_cfg.c **** }
  95:Generated_Source\PSoC5/cyfitter_cfg.c **** 
  96:Generated_Source\PSoC5/cyfitter_cfg.c **** 
  97:Generated_Source\PSoC5/cyfitter_cfg.c **** 
  98:Generated_Source\PSoC5/cyfitter_cfg.c **** 
  99:Generated_Source\PSoC5/cyfitter_cfg.c **** /* Clock startup error codes                                                   */
 100:Generated_Source\PSoC5/cyfitter_cfg.c **** #define CYCLOCKSTART_NO_ERROR    0u
 101:Generated_Source\PSoC5/cyfitter_cfg.c **** #define CYCLOCKSTART_XTAL_ERROR  1u
 102:Generated_Source\PSoC5/cyfitter_cfg.c **** #define CYCLOCKSTART_32KHZ_ERROR 2u
 103:Generated_Source\PSoC5/cyfitter_cfg.c **** #define CYCLOCKSTART_PLL_ERROR   3u
 104:Generated_Source\PSoC5/cyfitter_cfg.c **** #define CYCLOCKSTART_FLL_ERROR   4u
 105:Generated_Source\PSoC5/cyfitter_cfg.c **** #define CYCLOCKSTART_WCO_ERROR   5u
 106:Generated_Source\PSoC5/cyfitter_cfg.c **** 
 107:Generated_Source\PSoC5/cyfitter_cfg.c **** 
 108:Generated_Source\PSoC5/cyfitter_cfg.c **** #ifdef CY_NEED_CYCLOCKSTARTUPERROR
 109:Generated_Source\PSoC5/cyfitter_cfg.c **** /*******************************************************************************
 110:Generated_Source\PSoC5/cyfitter_cfg.c **** * Function Name: CyClockStartupError
 111:Generated_Source\PSoC5/cyfitter_cfg.c **** ********************************************************************************
 112:Generated_Source\PSoC5/cyfitter_cfg.c **** * Summary:
 113:Generated_Source\PSoC5/cyfitter_cfg.c **** *  If an error is encountered during clock configuration (crystal startup error,
 114:Generated_Source\PSoC5/cyfitter_cfg.c **** *  PLL lock error, etc.), the system will end up here.  Unless reimplemented by
 115:Generated_Source\PSoC5/cyfitter_cfg.c **** *  the customer, this function will stop in an infinite loop.
 116:Generated_Source\PSoC5/cyfitter_cfg.c **** *
 117:Generated_Source\PSoC5/cyfitter_cfg.c **** * Parameters:
 118:Generated_Source\PSoC5/cyfitter_cfg.c **** *   void
 119:Generated_Source\PSoC5/cyfitter_cfg.c **** *
 120:Generated_Source\PSoC5/cyfitter_cfg.c **** * Return:
 121:Generated_Source\PSoC5/cyfitter_cfg.c **** *   void
 122:Generated_Source\PSoC5/cyfitter_cfg.c **** *
 123:Generated_Source\PSoC5/cyfitter_cfg.c **** *******************************************************************************/
 124:Generated_Source\PSoC5/cyfitter_cfg.c **** CY_CFG_UNUSED
 125:Generated_Source\PSoC5/cyfitter_cfg.c **** static void CyClockStartupError(uint8 errorCode);
 126:Generated_Source\PSoC5/cyfitter_cfg.c **** CY_CFG_UNUSED
 127:Generated_Source\PSoC5/cyfitter_cfg.c **** static void CyClockStartupError(uint8 errorCode)
 128:Generated_Source\PSoC5/cyfitter_cfg.c **** {
  27              		.loc 1 128 0
  28              		.cfi_startproc
  29              		@ Volatile: function does not return.
  30              		@ args = 0, pretend = 0, frame = 0
  31              		@ frame_needed = 0, uses_anonymous_args = 0
  32              		@ link register save eliminated.
  33              	.LVL0:
  34              	.L2:
  35 0000 FEE7     		b	.L2
  36              		.cfi_endproc
  37              	.LFE3:
  38              		.size	CyClockStartupError, .-CyClockStartupError
  39 0002 00BF     		.section	.text.cfg_write_bytes32,"ax",%progbits
  40              		.align	2
  41              		.thumb
  42              		.thumb_func
  43              		.type	cfg_write_bytes32, %function
ARM GAS  C:\Users\ADMH2\AppData\Local\Temp\ccnv6mNa.s 			page 4


  44              	cfg_write_bytes32:
  45              	.LFB4:
 129:Generated_Source\PSoC5/cyfitter_cfg.c ****     /* To remove the compiler warning if errorCode not used.                */
 130:Generated_Source\PSoC5/cyfitter_cfg.c ****     errorCode = errorCode;
 131:Generated_Source\PSoC5/cyfitter_cfg.c **** 
 132:Generated_Source\PSoC5/cyfitter_cfg.c ****     /* If we have a clock startup error (bad MHz crystal, PLL lock, etc.),  */
 133:Generated_Source\PSoC5/cyfitter_cfg.c ****     /* we will end up here to allow the customer to implement something to  */
 134:Generated_Source\PSoC5/cyfitter_cfg.c ****     /* deal with the clock condition.                                       */
 135:Generated_Source\PSoC5/cyfitter_cfg.c **** 
 136:Generated_Source\PSoC5/cyfitter_cfg.c **** #ifdef CY_CFG_CLOCK_STARTUP_ERROR_CALLBACK
 137:Generated_Source\PSoC5/cyfitter_cfg.c ****     CY_CFG_Clock_Startup_ErrorCallback();
 138:Generated_Source\PSoC5/cyfitter_cfg.c **** #else
 139:Generated_Source\PSoC5/cyfitter_cfg.c ****     /*  If not using CY_CFG_CLOCK_STARTUP_ERROR_CALLBACK, place your clock startup code here. */
 140:Generated_Source\PSoC5/cyfitter_cfg.c ****     /* `#START CyClockStartupError` */
 141:Generated_Source\PSoC5/cyfitter_cfg.c **** 
 142:Generated_Source\PSoC5/cyfitter_cfg.c **** 
 143:Generated_Source\PSoC5/cyfitter_cfg.c **** 
 144:Generated_Source\PSoC5/cyfitter_cfg.c ****     /* `#END` */
 145:Generated_Source\PSoC5/cyfitter_cfg.c **** 
 146:Generated_Source\PSoC5/cyfitter_cfg.c ****     while(1) {}
 147:Generated_Source\PSoC5/cyfitter_cfg.c **** #endif /* CY_CFG_CLOCK_STARTUP_ERROR_CALLBACK */
 148:Generated_Source\PSoC5/cyfitter_cfg.c **** }
 149:Generated_Source\PSoC5/cyfitter_cfg.c **** #endif
 150:Generated_Source\PSoC5/cyfitter_cfg.c **** 
 151:Generated_Source\PSoC5/cyfitter_cfg.c **** #define CY_CFG_BASE_ADDR_COUNT 29u
 152:Generated_Source\PSoC5/cyfitter_cfg.c **** CYPACKED typedef struct
 153:Generated_Source\PSoC5/cyfitter_cfg.c **** {
 154:Generated_Source\PSoC5/cyfitter_cfg.c **** 	uint8 offset;
 155:Generated_Source\PSoC5/cyfitter_cfg.c **** 	uint8 value;
 156:Generated_Source\PSoC5/cyfitter_cfg.c **** } CYPACKED_ATTR cy_cfg_addrvalue_t;
 157:Generated_Source\PSoC5/cyfitter_cfg.c **** 
 158:Generated_Source\PSoC5/cyfitter_cfg.c **** #define cy_cfg_addr_table ((const uint32 CYFAR *)0x48000000u)
 159:Generated_Source\PSoC5/cyfitter_cfg.c **** #define cy_cfg_data_table ((const cy_cfg_addrvalue_t CYFAR *)0x48000074u)
 160:Generated_Source\PSoC5/cyfitter_cfg.c **** 
 161:Generated_Source\PSoC5/cyfitter_cfg.c **** /* IOPINS0_0 Address: CYREG_PRT0_DM0 Size (bytes): 8 */
 162:Generated_Source\PSoC5/cyfitter_cfg.c **** #define BS_IOPINS0_0_VAL ((const uint8 CYFAR *)0x480004C4u)
 163:Generated_Source\PSoC5/cyfitter_cfg.c **** 
 164:Generated_Source\PSoC5/cyfitter_cfg.c **** /* IOPINS0_7 Address: CYREG_PRT12_DM0 Size (bytes): 8 */
 165:Generated_Source\PSoC5/cyfitter_cfg.c **** #define BS_IOPINS0_7_VAL ((const uint8 CYFAR *)0x480004CCu)
 166:Generated_Source\PSoC5/cyfitter_cfg.c **** 
 167:Generated_Source\PSoC5/cyfitter_cfg.c **** /* IOPINS0_8 Address: CYREG_PRT15_DM0 Size (bytes): 8 */
 168:Generated_Source\PSoC5/cyfitter_cfg.c **** #define BS_IOPINS0_8_VAL ((const uint8 CYFAR *)0x480004D4u)
 169:Generated_Source\PSoC5/cyfitter_cfg.c **** 
 170:Generated_Source\PSoC5/cyfitter_cfg.c **** /* IOPINS0_1 Address: CYREG_PRT1_DM0 Size (bytes): 8 */
 171:Generated_Source\PSoC5/cyfitter_cfg.c **** #define BS_IOPINS0_1_VAL ((const uint8 CYFAR *)0x480004DCu)
 172:Generated_Source\PSoC5/cyfitter_cfg.c **** 
 173:Generated_Source\PSoC5/cyfitter_cfg.c **** /* IOPINS0_2 Address: CYREG_PRT2_DM0 Size (bytes): 8 */
 174:Generated_Source\PSoC5/cyfitter_cfg.c **** #define BS_IOPINS0_2_VAL ((const uint8 CYFAR *)0x480004E4u)
 175:Generated_Source\PSoC5/cyfitter_cfg.c **** 
 176:Generated_Source\PSoC5/cyfitter_cfg.c **** /* IOPINS0_3 Address: CYREG_PRT3_DR Size (bytes): 10 */
 177:Generated_Source\PSoC5/cyfitter_cfg.c **** #define BS_IOPINS0_3_VAL ((const uint8 CYFAR *)0x480004ECu)
 178:Generated_Source\PSoC5/cyfitter_cfg.c **** 
 179:Generated_Source\PSoC5/cyfitter_cfg.c **** /* CYDEV_CLKDIST_ACFG0_CFG0 Address: CYREG_CLKDIST_ACFG0_CFG0 Size (bytes): 4 */
 180:Generated_Source\PSoC5/cyfitter_cfg.c **** #define BS_CYDEV_CLKDIST_ACFG0_CFG0_VAL ((const uint8 CYFAR *)0x480004F8u)
 181:Generated_Source\PSoC5/cyfitter_cfg.c **** 
 182:Generated_Source\PSoC5/cyfitter_cfg.c **** /* PHUB_CFGMEM2 Address: CYREG_PHUB_CFGMEM2_CFG0 Size (bytes): 4 */
 183:Generated_Source\PSoC5/cyfitter_cfg.c **** #define BS_PHUB_CFGMEM2_VAL ((const uint8 CYFAR *)0x480004FCu)
ARM GAS  C:\Users\ADMH2\AppData\Local\Temp\ccnv6mNa.s 			page 5


 184:Generated_Source\PSoC5/cyfitter_cfg.c **** 
 185:Generated_Source\PSoC5/cyfitter_cfg.c **** 
 186:Generated_Source\PSoC5/cyfitter_cfg.c **** /*******************************************************************************
 187:Generated_Source\PSoC5/cyfitter_cfg.c **** * Function Name: cfg_write_bytes32
 188:Generated_Source\PSoC5/cyfitter_cfg.c **** ********************************************************************************
 189:Generated_Source\PSoC5/cyfitter_cfg.c **** * Summary:
 190:Generated_Source\PSoC5/cyfitter_cfg.c **** *  This function is used for setting up the chip configuration areas that
 191:Generated_Source\PSoC5/cyfitter_cfg.c **** *  contain relatively sparse data.
 192:Generated_Source\PSoC5/cyfitter_cfg.c **** *
 193:Generated_Source\PSoC5/cyfitter_cfg.c **** * Parameters:
 194:Generated_Source\PSoC5/cyfitter_cfg.c **** *   void
 195:Generated_Source\PSoC5/cyfitter_cfg.c **** *
 196:Generated_Source\PSoC5/cyfitter_cfg.c **** * Return:
 197:Generated_Source\PSoC5/cyfitter_cfg.c **** *   void
 198:Generated_Source\PSoC5/cyfitter_cfg.c **** *
 199:Generated_Source\PSoC5/cyfitter_cfg.c **** *******************************************************************************/
 200:Generated_Source\PSoC5/cyfitter_cfg.c **** static void cfg_write_bytes32(const uint32 addr_table[], const cy_cfg_addrvalue_t data_table[]);
 201:Generated_Source\PSoC5/cyfitter_cfg.c **** static void cfg_write_bytes32(const uint32 addr_table[], const cy_cfg_addrvalue_t data_table[])
 202:Generated_Source\PSoC5/cyfitter_cfg.c **** {
  46              		.loc 1 202 0
  47              		.cfi_startproc
  48              		@ args = 0, pretend = 0, frame = 0
  49              		@ frame_needed = 0, uses_anonymous_args = 0
  50              		@ link register save eliminated.
  51              	.LVL1:
  52              		.loc 1 202 0
  53 0000 F0B4     		push	{r4, r5, r6, r7}
  54              		.cfi_def_cfa_offset 16
  55              		.cfi_offset 4, -16
  56              		.cfi_offset 5, -12
  57              		.cfi_offset 6, -8
  58              		.cfi_offset 7, -4
  59              	.LVL2:
 203:Generated_Source\PSoC5/cyfitter_cfg.c **** 	/* For 32-bit little-endian architectures */
 204:Generated_Source\PSoC5/cyfitter_cfg.c **** 	uint32 i, j = 0u;
  60              		.loc 1 204 0
  61 0002 0022     		movs	r2, #0
 205:Generated_Source\PSoC5/cyfitter_cfg.c **** 	for (i = 0u; i < CY_CFG_BASE_ADDR_COUNT; i++)
  62              		.loc 1 205 0
  63 0004 1746     		mov	r7, r2
  64 0006 11E0     		b	.L4
  65              	.LVL3:
  66              	.L7:
  67              	.LBB2:
 206:Generated_Source\PSoC5/cyfitter_cfg.c **** 	{
 207:Generated_Source\PSoC5/cyfitter_cfg.c **** 		uint32 baseAddr = addr_table[i];
  68              		.loc 1 207 0
  69 0008 50F82760 		ldr	r6, [r0, r7, lsl #2]
  70              	.LVL4:
 208:Generated_Source\PSoC5/cyfitter_cfg.c **** 		uint8 count = (uint8)baseAddr;
  71              		.loc 1 208 0
  72 000c F3B2     		uxtb	r3, r6
  73              	.LVL5:
 209:Generated_Source\PSoC5/cyfitter_cfg.c **** 		baseAddr &= 0xFFFFFF00u;
  74              		.loc 1 209 0
  75 000e 26F0FF06 		bic	r6, r6, #255
  76              	.LVL6:
ARM GAS  C:\Users\ADMH2\AppData\Local\Temp\ccnv6mNa.s 			page 6


 210:Generated_Source\PSoC5/cyfitter_cfg.c **** 		while (count != 0u)
  77              		.loc 1 210 0
  78 0012 08E0     		b	.L5
  79              	.L6:
 211:Generated_Source\PSoC5/cyfitter_cfg.c **** 		{
 212:Generated_Source\PSoC5/cyfitter_cfg.c **** 			CY_SET_REG8((void *)(baseAddr + data_table[j].offset), data_table[j].value);
  80              		.loc 1 212 0
  81 0014 01EB4205 		add	r5, r1, r2, lsl #1
  82 0018 11F81240 		ldrb	r4, [r1, r2, lsl #1]	@ zero_extendqisi2
  83 001c 6D78     		ldrb	r5, [r5, #1]	@ zero_extendqisi2
  84 001e A555     		strb	r5, [r4, r6]
 213:Generated_Source\PSoC5/cyfitter_cfg.c **** 			j++;
  85              		.loc 1 213 0
  86 0020 0132     		adds	r2, r2, #1
  87              	.LVL7:
 214:Generated_Source\PSoC5/cyfitter_cfg.c **** 			count--;
  88              		.loc 1 214 0
  89 0022 013B     		subs	r3, r3, #1
  90              	.LVL8:
  91 0024 DBB2     		uxtb	r3, r3
  92              	.LVL9:
  93              	.L5:
 210:Generated_Source\PSoC5/cyfitter_cfg.c **** 		{
  94              		.loc 1 210 0
  95 0026 002B     		cmp	r3, #0
  96 0028 F4D1     		bne	.L6
  97              	.LBE2:
 205:Generated_Source\PSoC5/cyfitter_cfg.c **** 	{
  98              		.loc 1 205 0 discriminator 2
  99 002a 0137     		adds	r7, r7, #1
 100              	.LVL10:
 101              	.L4:
 205:Generated_Source\PSoC5/cyfitter_cfg.c **** 	{
 102              		.loc 1 205 0 is_stmt 0 discriminator 1
 103 002c 1C2F     		cmp	r7, #28
 104 002e EBD9     		bls	.L7
 215:Generated_Source\PSoC5/cyfitter_cfg.c **** 		}
 216:Generated_Source\PSoC5/cyfitter_cfg.c **** 	}
 217:Generated_Source\PSoC5/cyfitter_cfg.c **** }
 105              		.loc 1 217 0 is_stmt 1
 106 0030 F0BC     		pop	{r4, r5, r6, r7}
 107              		.cfi_restore 7
 108              		.cfi_restore 6
 109              		.cfi_restore 5
 110              		.cfi_restore 4
 111              		.cfi_def_cfa_offset 0
 112              	.LVL11:
 113 0032 7047     		bx	lr
 114              		.cfi_endproc
 115              	.LFE4:
 116              		.size	cfg_write_bytes32, .-cfg_write_bytes32
 117              		.section	.text.CYMEMZERO,"ax",%progbits
 118              		.align	2
 119              		.thumb
 120              		.thumb_func
 121              		.type	CYMEMZERO, %function
 122              	CYMEMZERO:
ARM GAS  C:\Users\ADMH2\AppData\Local\Temp\ccnv6mNa.s 			page 7


 123              	.LFB0:
  78:Generated_Source\PSoC5/cyfitter_cfg.c **** 	(void)memset(s, 0, n);
 124              		.loc 1 78 0
 125              		.cfi_startproc
 126              		@ args = 0, pretend = 0, frame = 0
 127              		@ frame_needed = 0, uses_anonymous_args = 0
 128              	.LVL12:
 129 0000 08B5     		push	{r3, lr}
 130              		.cfi_def_cfa_offset 8
 131              		.cfi_offset 3, -8
 132              		.cfi_offset 14, -4
  79:Generated_Source\PSoC5/cyfitter_cfg.c **** }
 133              		.loc 1 79 0
 134 0002 0A46     		mov	r2, r1
 135 0004 0021     		movs	r1, #0
 136              	.LVL13:
 137 0006 FFF7FEFF 		bl	memset
 138              	.LVL14:
 139 000a 08BD     		pop	{r3, pc}
 140              		.cfi_endproc
 141              	.LFE0:
 142              		.size	CYMEMZERO, .-CYMEMZERO
 143              		.section	.text.AnalogSetDefault,"ax",%progbits
 144              		.align	2
 145              		.thumb
 146              		.thumb_func
 147              		.type	AnalogSetDefault, %function
 148              	AnalogSetDefault:
 149              	.LFB6:
 218:Generated_Source\PSoC5/cyfitter_cfg.c **** 
 219:Generated_Source\PSoC5/cyfitter_cfg.c **** /*******************************************************************************
 220:Generated_Source\PSoC5/cyfitter_cfg.c **** * Function Name: ClockSetup
 221:Generated_Source\PSoC5/cyfitter_cfg.c **** ********************************************************************************
 222:Generated_Source\PSoC5/cyfitter_cfg.c **** *
 223:Generated_Source\PSoC5/cyfitter_cfg.c **** * Summary:
 224:Generated_Source\PSoC5/cyfitter_cfg.c **** *  Performs the initialization of all of the clocks in the device based on the
 225:Generated_Source\PSoC5/cyfitter_cfg.c **** *  settings in the Clock tab of the DWR.  This includes enabling the requested
 226:Generated_Source\PSoC5/cyfitter_cfg.c **** *  clocks and setting the necessary dividers to produce the desired frequency. 
 227:Generated_Source\PSoC5/cyfitter_cfg.c **** *
 228:Generated_Source\PSoC5/cyfitter_cfg.c **** * Parameters:
 229:Generated_Source\PSoC5/cyfitter_cfg.c **** *  void
 230:Generated_Source\PSoC5/cyfitter_cfg.c **** *
 231:Generated_Source\PSoC5/cyfitter_cfg.c **** * Return:
 232:Generated_Source\PSoC5/cyfitter_cfg.c **** *  void
 233:Generated_Source\PSoC5/cyfitter_cfg.c **** *
 234:Generated_Source\PSoC5/cyfitter_cfg.c **** *******************************************************************************/
 235:Generated_Source\PSoC5/cyfitter_cfg.c **** static void ClockSetup(void);
 236:Generated_Source\PSoC5/cyfitter_cfg.c **** static void ClockSetup(void)
 237:Generated_Source\PSoC5/cyfitter_cfg.c **** {
 238:Generated_Source\PSoC5/cyfitter_cfg.c **** 	uint8 x32TrHold;
 239:Generated_Source\PSoC5/cyfitter_cfg.c **** 	uint32 timeout;
 240:Generated_Source\PSoC5/cyfitter_cfg.c **** 	uint8 pllLock;
 241:Generated_Source\PSoC5/cyfitter_cfg.c **** 
 242:Generated_Source\PSoC5/cyfitter_cfg.c **** 	x32TrHold = CY_GET_XTND_REG8((void CYFAR *)CYREG_X32_TR);
 243:Generated_Source\PSoC5/cyfitter_cfg.c **** 
 244:Generated_Source\PSoC5/cyfitter_cfg.c **** 	/* Configure Digital Clocks based on settings from Clock DWR */
 245:Generated_Source\PSoC5/cyfitter_cfg.c **** 	CY_SET_XTND_REG16((void CYFAR *)(CYREG_CLKDIST_DCFG0_CFG0), 0x0001u);
ARM GAS  C:\Users\ADMH2\AppData\Local\Temp\ccnv6mNa.s 			page 8


 246:Generated_Source\PSoC5/cyfitter_cfg.c **** 	CY_SET_XTND_REG8((void CYFAR *)(CYREG_CLKDIST_DCFG0_CFG0 + 0x2u), 0x18u);
 247:Generated_Source\PSoC5/cyfitter_cfg.c **** 	CY_SET_XTND_REG16((void CYFAR *)(CYREG_CLKDIST_DCFG1_CFG0), 0x0017u);
 248:Generated_Source\PSoC5/cyfitter_cfg.c **** 	CY_SET_XTND_REG8((void CYFAR *)(CYREG_CLKDIST_DCFG1_CFG0 + 0x2u), 0x18u);
 249:Generated_Source\PSoC5/cyfitter_cfg.c **** 	CY_SET_XTND_REG16((void CYFAR *)(CYREG_CLKDIST_DCFG2_CFG0), 0x0074u);
 250:Generated_Source\PSoC5/cyfitter_cfg.c **** 	CY_SET_XTND_REG8((void CYFAR *)(CYREG_CLKDIST_DCFG2_CFG0 + 0x2u), 0x18u);
 251:Generated_Source\PSoC5/cyfitter_cfg.c **** 	CY_SET_XTND_REG16((void CYFAR *)(CYREG_CLKDIST_DCFG3_CFG0), 0x02D7u);
 252:Generated_Source\PSoC5/cyfitter_cfg.c **** 	CY_SET_XTND_REG8((void CYFAR *)(CYREG_CLKDIST_DCFG3_CFG0 + 0x2u), 0x1Du);
 253:Generated_Source\PSoC5/cyfitter_cfg.c **** 
 254:Generated_Source\PSoC5/cyfitter_cfg.c **** 	/* Configure Analog Clocks based on settings from Clock DWR */
 255:Generated_Source\PSoC5/cyfitter_cfg.c **** 	CYCONFIGCPY((void CYFAR *)(CYREG_CLKDIST_ACFG0_CFG0), (const void CYFAR *)(BS_CYDEV_CLKDIST_ACFG0_
 256:Generated_Source\PSoC5/cyfitter_cfg.c **** 
 257:Generated_Source\PSoC5/cyfitter_cfg.c **** 	/* Configure ILO based on settings from Clock DWR */
 258:Generated_Source\PSoC5/cyfitter_cfg.c **** 	CY_SET_XTND_REG8((void CYFAR *)(CYREG_SLOWCLK_ILO_CR0), 0x02u);
 259:Generated_Source\PSoC5/cyfitter_cfg.c **** 	CY_SET_XTND_REG8((void CYFAR *)(CYREG_CLKDIST_CR), 0x08u);
 260:Generated_Source\PSoC5/cyfitter_cfg.c **** 
 261:Generated_Source\PSoC5/cyfitter_cfg.c **** 	/* Configure XTAL 32kHz based on settings from Clock DWR */
 262:Generated_Source\PSoC5/cyfitter_cfg.c **** 	CY_SET_XTND_REG8((void CYFAR *)(CYREG_SLOWCLK_X32_TST), 0xF3u);
 263:Generated_Source\PSoC5/cyfitter_cfg.c **** 	CY_SET_XTND_REG8((void CYFAR *)(CYREG_X32_TR), 0x03u);
 264:Generated_Source\PSoC5/cyfitter_cfg.c **** 	CY_SET_XTND_REG8((void CYFAR *)(CYREG_SLOWCLK_X32_CFG), 0x84u);
 265:Generated_Source\PSoC5/cyfitter_cfg.c **** 	CY_SET_XTND_REG8((void CYFAR *)(CYREG_SLOWCLK_X32_CR), 0x05u);
 266:Generated_Source\PSoC5/cyfitter_cfg.c **** 	/* Wait up to 1000000us for the XTAL 32kHz to lock */
 267:Generated_Source\PSoC5/cyfitter_cfg.c **** 	for (timeout = 1000000u / 10u; (timeout > 0u) && ((CY_GET_XTND_REG8((void CYFAR *)CYREG_SLOWCLK_X3
 268:Generated_Source\PSoC5/cyfitter_cfg.c **** 	{ 
 269:Generated_Source\PSoC5/cyfitter_cfg.c **** 		
 270:Generated_Source\PSoC5/cyfitter_cfg.c **** 		CyDelayCycles(10u * 48u); /* Delay 10us based on 48MHz clock */
 271:Generated_Source\PSoC5/cyfitter_cfg.c **** 	}
 272:Generated_Source\PSoC5/cyfitter_cfg.c **** 	CY_SET_XTND_REG8((void CYFAR *)(CYREG_X32_TR), (x32TrHold));
 273:Generated_Source\PSoC5/cyfitter_cfg.c **** 
 274:Generated_Source\PSoC5/cyfitter_cfg.c **** 	/* Configure IMO based on settings from Clock DWR */
 275:Generated_Source\PSoC5/cyfitter_cfg.c **** 	CY_SET_XTND_REG8((void CYFAR *)(CYREG_FASTCLK_IMO_CR), 0x03u);
 276:Generated_Source\PSoC5/cyfitter_cfg.c **** 	CY_SET_XTND_REG8((void CYFAR *)(CYREG_IMO_TR1), (CY_GET_XTND_REG8((void CYFAR *)CYREG_FLSHID_CUST_
 277:Generated_Source\PSoC5/cyfitter_cfg.c **** 
 278:Generated_Source\PSoC5/cyfitter_cfg.c **** 	/* Configure PLL based on settings from Clock DWR */
 279:Generated_Source\PSoC5/cyfitter_cfg.c **** 	CY_SET_XTND_REG16((void CYFAR *)(CYREG_FASTCLK_PLL_P), 0x0008u);
 280:Generated_Source\PSoC5/cyfitter_cfg.c **** 	CY_SET_XTND_REG16((void CYFAR *)(CYREG_FASTCLK_PLL_CFG0), 0x1251u);
 281:Generated_Source\PSoC5/cyfitter_cfg.c **** 	/* Wait up to 250us for the PLL to lock */
 282:Generated_Source\PSoC5/cyfitter_cfg.c **** 	pllLock = 0u;
 283:Generated_Source\PSoC5/cyfitter_cfg.c **** 	for (timeout = 250u / 10u; (timeout > 0u) && (pllLock != 0x03u); timeout--)
 284:Generated_Source\PSoC5/cyfitter_cfg.c **** 	{ 
 285:Generated_Source\PSoC5/cyfitter_cfg.c **** 		pllLock = 0x03u & ((uint8)((uint8)pllLock << 1) | ((CY_GET_XTND_REG8((void CYFAR *)CYREG_FASTCLK_
 286:Generated_Source\PSoC5/cyfitter_cfg.c **** 		CyDelayCycles(10u * 48u); /* Delay 10us based on 48MHz clock */
 287:Generated_Source\PSoC5/cyfitter_cfg.c **** 	}
 288:Generated_Source\PSoC5/cyfitter_cfg.c **** 	/* If we ran out of time the PLL didn't lock so go to the error function */
 289:Generated_Source\PSoC5/cyfitter_cfg.c **** 	if (timeout == 0u)
 290:Generated_Source\PSoC5/cyfitter_cfg.c **** 	{
 291:Generated_Source\PSoC5/cyfitter_cfg.c **** 		CyClockStartupError(CYCLOCKSTART_PLL_ERROR);
 292:Generated_Source\PSoC5/cyfitter_cfg.c **** 	}
 293:Generated_Source\PSoC5/cyfitter_cfg.c **** 
 294:Generated_Source\PSoC5/cyfitter_cfg.c **** 	/* Configure Bus/Master Clock based on settings from Clock DWR */
 295:Generated_Source\PSoC5/cyfitter_cfg.c **** 	CY_SET_XTND_REG16((void CYFAR *)(CYREG_CLKDIST_MSTR0), 0x0100u);
 296:Generated_Source\PSoC5/cyfitter_cfg.c **** 	CY_SET_XTND_REG8((void CYFAR *)(CYREG_CLKDIST_MSTR0), 0x07u);
 297:Generated_Source\PSoC5/cyfitter_cfg.c **** 	CY_SET_XTND_REG8((void CYFAR *)(CYREG_CLKDIST_BCFG0), 0x00u);
 298:Generated_Source\PSoC5/cyfitter_cfg.c **** 	CY_SET_XTND_REG8((void CYFAR *)(CYREG_CLKDIST_BCFG2), 0x48u);
 299:Generated_Source\PSoC5/cyfitter_cfg.c **** 	CY_SET_XTND_REG8((void CYFAR *)(CYREG_CLKDIST_MSTR0), 0x00u);
 300:Generated_Source\PSoC5/cyfitter_cfg.c **** 	CY_SET_XTND_REG8((void CYFAR *)(CYREG_CLKDIST_LD), 0x02u);
 301:Generated_Source\PSoC5/cyfitter_cfg.c **** 	CY_SET_XTND_REG8((void CYFAR *)(CYREG_CLKDIST_DLY1), 0x04u);
 302:Generated_Source\PSoC5/cyfitter_cfg.c **** 
ARM GAS  C:\Users\ADMH2\AppData\Local\Temp\ccnv6mNa.s 			page 9


 303:Generated_Source\PSoC5/cyfitter_cfg.c **** 	CY_SET_XTND_REG8((void CYFAR *)(CYREG_PM_ACT_CFG2), ((CY_GET_XTND_REG8((void CYFAR *)CYREG_PM_ACT_
 304:Generated_Source\PSoC5/cyfitter_cfg.c **** 	CY_SET_XTND_REG8((void CYFAR *)(CYREG_PM_ACT_CFG1), ((CY_GET_XTND_REG8((void CYFAR *)CYREG_PM_ACT_
 305:Generated_Source\PSoC5/cyfitter_cfg.c **** 	CY_SET_XTND_REG8((void CYFAR *)(CYREG_PM_ACT_CFG0), ((CY_GET_XTND_REG8((void CYFAR *)CYREG_PM_ACT_
 306:Generated_Source\PSoC5/cyfitter_cfg.c **** }
 307:Generated_Source\PSoC5/cyfitter_cfg.c **** 
 308:Generated_Source\PSoC5/cyfitter_cfg.c **** 
 309:Generated_Source\PSoC5/cyfitter_cfg.c **** /* Analog API Functions */
 310:Generated_Source\PSoC5/cyfitter_cfg.c **** 
 311:Generated_Source\PSoC5/cyfitter_cfg.c **** 
 312:Generated_Source\PSoC5/cyfitter_cfg.c **** /*******************************************************************************
 313:Generated_Source\PSoC5/cyfitter_cfg.c **** * Function Name: AnalogSetDefault
 314:Generated_Source\PSoC5/cyfitter_cfg.c **** ********************************************************************************
 315:Generated_Source\PSoC5/cyfitter_cfg.c **** *
 316:Generated_Source\PSoC5/cyfitter_cfg.c **** * Summary:
 317:Generated_Source\PSoC5/cyfitter_cfg.c **** *  Sets up the analog portions of the chip to default values based on chip
 318:Generated_Source\PSoC5/cyfitter_cfg.c **** *  configuration options from the project.
 319:Generated_Source\PSoC5/cyfitter_cfg.c **** *
 320:Generated_Source\PSoC5/cyfitter_cfg.c **** * Parameters:
 321:Generated_Source\PSoC5/cyfitter_cfg.c **** *  void
 322:Generated_Source\PSoC5/cyfitter_cfg.c **** *
 323:Generated_Source\PSoC5/cyfitter_cfg.c **** * Return:
 324:Generated_Source\PSoC5/cyfitter_cfg.c **** *  void
 325:Generated_Source\PSoC5/cyfitter_cfg.c **** *
 326:Generated_Source\PSoC5/cyfitter_cfg.c **** *******************************************************************************/
 327:Generated_Source\PSoC5/cyfitter_cfg.c **** static void AnalogSetDefault(void);
 328:Generated_Source\PSoC5/cyfitter_cfg.c **** static void AnalogSetDefault(void)
 329:Generated_Source\PSoC5/cyfitter_cfg.c **** {
 150              		.loc 1 329 0
 151              		.cfi_startproc
 152              		@ args = 0, pretend = 0, frame = 0
 153              		@ frame_needed = 0, uses_anonymous_args = 0
 154 0000 F8B5     		push	{r3, r4, r5, r6, r7, lr}
 155              		.cfi_def_cfa_offset 24
 156              		.cfi_offset 3, -24
 157              		.cfi_offset 4, -20
 158              		.cfi_offset 5, -16
 159              		.cfi_offset 6, -12
 160              		.cfi_offset 7, -8
 161              		.cfi_offset 14, -4
 330:Generated_Source\PSoC5/cyfitter_cfg.c **** 	uint8 bg_xover_inl_trim = CY_GET_XTND_REG8((void CYFAR *)(CYREG_FLSHID_MFG_CFG_BG_XOVER_INL_TRIM +
 162              		.loc 1 330 0
 163 0002 134B     		ldr	r3, .L13
 164 0004 1B78     		ldrb	r3, [r3]	@ zero_extendqisi2
 165 0006 DBB2     		uxtb	r3, r3
 166              	.LVL15:
 331:Generated_Source\PSoC5/cyfitter_cfg.c **** 	uint8 cr4 = CY_GET_XTND_REG8((void CYFAR *)(CYREG_RESET_CR4));
 167              		.loc 1 331 0
 168 0008 124E     		ldr	r6, .L13+4
 169 000a 3478     		ldrb	r4, [r6]	@ zero_extendqisi2
 170 000c E4B2     		uxtb	r4, r4
 171              	.LVL16:
 332:Generated_Source\PSoC5/cyfitter_cfg.c **** 	uint8 cr5 = CY_GET_XTND_REG8((void CYFAR *)(CYREG_RESET_CR5));
 172              		.loc 1 332 0
 173 000e 124F     		ldr	r7, .L13+8
 174 0010 3D78     		ldrb	r5, [r7]	@ zero_extendqisi2
 175 0012 EDB2     		uxtb	r5, r5
 176              	.LVL17:
ARM GAS  C:\Users\ADMH2\AppData\Local\Temp\ccnv6mNa.s 			page 10


 333:Generated_Source\PSoC5/cyfitter_cfg.c **** 	CY_SET_XTND_REG8((void CYFAR *)(CYREG_BG_DFT0), (bg_xover_inl_trim & 0x07u));
 177              		.loc 1 333 0
 178 0014 03F00701 		and	r1, r3, #7
 179 0018 104A     		ldr	r2, .L13+12
 180 001a 1170     		strb	r1, [r2]
 334:Generated_Source\PSoC5/cyfitter_cfg.c **** 	CY_SET_XTND_REG8((void CYFAR *)(CYREG_BG_DFT1), ((bg_xover_inl_trim >> 4) & 0x0Fu));
 181              		.loc 1 334 0
 182 001c 1B09     		lsrs	r3, r3, #4
 183              	.LVL18:
 184 001e 0132     		adds	r2, r2, #1
 185 0020 1370     		strb	r3, [r2]
 335:Generated_Source\PSoC5/cyfitter_cfg.c **** 	/* Disable PRES while setting up SAR voltage reference */
 336:Generated_Source\PSoC5/cyfitter_cfg.c **** 	CY_SET_XTND_REG8((void CYFAR *)(CYREG_RESET_CR4), (cr4 | 0x03u));
 186              		.loc 1 336 0
 187 0022 44F00303 		orr	r3, r4, #3
 188 0026 3370     		strb	r3, [r6]
 337:Generated_Source\PSoC5/cyfitter_cfg.c **** 	CY_SET_XTND_REG8((void CYFAR *)(CYREG_RESET_CR5), (cr5 | 0x03u));
 189              		.loc 1 337 0
 190 0028 45F00303 		orr	r3, r5, #3
 191 002c 3B70     		strb	r3, [r7]
 338:Generated_Source\PSoC5/cyfitter_cfg.c **** 	CY_SET_XTND_REG8((void CYFAR *)CYREG_SAR1_CSR1, 0x40u);
 192              		.loc 1 338 0
 193 002e 4023     		movs	r3, #64
 194 0030 9A32     		adds	r2, r2, #154
 195 0032 1370     		strb	r3, [r2]
 339:Generated_Source\PSoC5/cyfitter_cfg.c **** 	CY_SET_XTND_REG8((void CYFAR *)CYREG_SAR1_CSR3, 0x40u);
 196              		.loc 1 339 0
 197 0034 0232     		adds	r2, r2, #2
 198 0036 1370     		strb	r3, [r2]
 340:Generated_Source\PSoC5/cyfitter_cfg.c **** 	CY_SET_XTND_REG8((void CYFAR *)CYREG_SAR1_SW3, 0x20u);
 199              		.loc 1 340 0
 200 0038 2022     		movs	r2, #32
 201 003a 094B     		ldr	r3, .L13+16
 202 003c 1A70     		strb	r2, [r3]
 341:Generated_Source\PSoC5/cyfitter_cfg.c **** 	CyDelayUs(10u); /* Allow vref to settle before re-enabling PRES */
 203              		.loc 1 341 0
 204 003e 0A20     		movs	r0, #10
 205 0040 FFF7FEFF 		bl	CyDelayUs
 206              	.LVL19:
 342:Generated_Source\PSoC5/cyfitter_cfg.c **** 	CY_SET_XTND_REG8((void CYFAR *)(CYREG_RESET_CR5), (cr5));
 207              		.loc 1 342 0
 208 0044 3D70     		strb	r5, [r7]
 343:Generated_Source\PSoC5/cyfitter_cfg.c **** 	CY_SET_XTND_REG8((void CYFAR *)(CYREG_RESET_CR4), (cr4));
 209              		.loc 1 343 0
 210 0046 3470     		strb	r4, [r6]
 344:Generated_Source\PSoC5/cyfitter_cfg.c **** 	CY_SET_XTND_REG8((void CYFAR *)CYREG_PUMP_CR0, 0x44u);
 211              		.loc 1 344 0
 212 0048 4422     		movs	r2, #68
 213 004a 064B     		ldr	r3, .L13+20
 214 004c 1A70     		strb	r2, [r3]
 215 004e F8BD     		pop	{r3, r4, r5, r6, r7, pc}
 216              	.LVL20:
 217              	.L14:
 218              		.align	2
 219              	.L13:
 220 0050 CF010049 		.word	1224737231
 221 0054 F8460040 		.word	1073759992
ARM GAS  C:\Users\ADMH2\AppData\Local\Temp\ccnv6mNa.s 			page 11


 222 0058 F9460040 		.word	1073759993
 223 005c 6E580040 		.word	1073764462
 224 0060 2B5B0040 		.word	1073765163
 225 0064 76580040 		.word	1073764470
 226              		.cfi_endproc
 227              	.LFE6:
 228              		.size	AnalogSetDefault, .-AnalogSetDefault
 229              		.section	.text.CYCONFIGCPY,"ax",%progbits
 230              		.align	2
 231              		.thumb
 232              		.thumb_func
 233              		.type	CYCONFIGCPY, %function
 234              	CYCONFIGCPY:
 235              	.LFB1:
  85:Generated_Source\PSoC5/cyfitter_cfg.c **** 	(void)memcpy(dest, src, n);
 236              		.loc 1 85 0
 237              		.cfi_startproc
 238              		@ args = 0, pretend = 0, frame = 0
 239              		@ frame_needed = 0, uses_anonymous_args = 0
 240              	.LVL21:
 241 0000 08B5     		push	{r3, lr}
 242              		.cfi_def_cfa_offset 8
 243              		.cfi_offset 3, -8
 244              		.cfi_offset 14, -4
  86:Generated_Source\PSoC5/cyfitter_cfg.c **** }
 245              		.loc 1 86 0
 246 0002 FFF7FEFF 		bl	memcpy
 247              	.LVL22:
 248 0006 08BD     		pop	{r3, pc}
 249              		.cfi_endproc
 250              	.LFE1:
 251              		.size	CYCONFIGCPY, .-CYCONFIGCPY
 252              		.section	.text.ClockSetup,"ax",%progbits
 253              		.align	2
 254              		.thumb
 255              		.thumb_func
 256              		.type	ClockSetup, %function
 257              	ClockSetup:
 258              	.LFB5:
 237:Generated_Source\PSoC5/cyfitter_cfg.c **** 	uint8 x32TrHold;
 259              		.loc 1 237 0
 260              		.cfi_startproc
 261              		@ args = 0, pretend = 0, frame = 0
 262              		@ frame_needed = 0, uses_anonymous_args = 0
 263 0000 38B5     		push	{r3, r4, r5, lr}
 264              		.cfi_def_cfa_offset 16
 265              		.cfi_offset 3, -16
 266              		.cfi_offset 4, -12
 267              		.cfi_offset 5, -8
 268              		.cfi_offset 14, -4
 242:Generated_Source\PSoC5/cyfitter_cfg.c **** 
 269              		.loc 1 242 0
 270 0002 454C     		ldr	r4, .L26
 271 0004 2578     		ldrb	r5, [r4]	@ zero_extendqisi2
 272 0006 EDB2     		uxtb	r5, r5
 273              	.LVL23:
 245:Generated_Source\PSoC5/cyfitter_cfg.c **** 	CY_SET_XTND_REG8((void CYFAR *)(CYREG_CLKDIST_DCFG0_CFG0 + 0x2u), 0x18u);
ARM GAS  C:\Users\ADMH2\AppData\Local\Temp\ccnv6mNa.s 			page 12


 274              		.loc 1 245 0
 275 0008 0122     		movs	r2, #1
 276 000a 444B     		ldr	r3, .L26+4
 277 000c 1A80     		strh	r2, [r3]	@ movhi
 246:Generated_Source\PSoC5/cyfitter_cfg.c **** 	CY_SET_XTND_REG16((void CYFAR *)(CYREG_CLKDIST_DCFG1_CFG0), 0x0017u);
 278              		.loc 1 246 0
 279 000e 1823     		movs	r3, #24
 280 0010 434A     		ldr	r2, .L26+8
 281 0012 1370     		strb	r3, [r2]
 247:Generated_Source\PSoC5/cyfitter_cfg.c **** 	CY_SET_XTND_REG8((void CYFAR *)(CYREG_CLKDIST_DCFG1_CFG0 + 0x2u), 0x18u);
 282              		.loc 1 247 0
 283 0014 1721     		movs	r1, #23
 284 0016 0232     		adds	r2, r2, #2
 285 0018 1180     		strh	r1, [r2]	@ movhi
 248:Generated_Source\PSoC5/cyfitter_cfg.c **** 	CY_SET_XTND_REG16((void CYFAR *)(CYREG_CLKDIST_DCFG2_CFG0), 0x0074u);
 286              		.loc 1 248 0
 287 001a 0232     		adds	r2, r2, #2
 288 001c 1370     		strb	r3, [r2]
 249:Generated_Source\PSoC5/cyfitter_cfg.c **** 	CY_SET_XTND_REG8((void CYFAR *)(CYREG_CLKDIST_DCFG2_CFG0 + 0x2u), 0x18u);
 289              		.loc 1 249 0
 290 001e 7421     		movs	r1, #116
 291 0020 0232     		adds	r2, r2, #2
 292 0022 1180     		strh	r1, [r2]	@ movhi
 250:Generated_Source\PSoC5/cyfitter_cfg.c **** 	CY_SET_XTND_REG16((void CYFAR *)(CYREG_CLKDIST_DCFG3_CFG0), 0x02D7u);
 293              		.loc 1 250 0
 294 0024 0232     		adds	r2, r2, #2
 295 0026 1370     		strb	r3, [r2]
 251:Generated_Source\PSoC5/cyfitter_cfg.c **** 	CY_SET_XTND_REG8((void CYFAR *)(CYREG_CLKDIST_DCFG3_CFG0 + 0x2u), 0x1Du);
 296              		.loc 1 251 0
 297 0028 40F2D722 		movw	r2, #727
 298 002c 3D4B     		ldr	r3, .L26+12
 299 002e 1A80     		strh	r2, [r3]	@ movhi
 252:Generated_Source\PSoC5/cyfitter_cfg.c **** 
 300              		.loc 1 252 0
 301 0030 1D22     		movs	r2, #29
 302 0032 0233     		adds	r3, r3, #2
 303 0034 1A70     		strb	r2, [r3]
 255:Generated_Source\PSoC5/cyfitter_cfg.c **** 
 304              		.loc 1 255 0
 305 0036 0422     		movs	r2, #4
 306 0038 3B49     		ldr	r1, .L26+16
 307 003a 3C48     		ldr	r0, .L26+20
 308 003c FFF7FEFF 		bl	CYCONFIGCPY
 309              	.LVL24:
 258:Generated_Source\PSoC5/cyfitter_cfg.c **** 	CY_SET_XTND_REG8((void CYFAR *)(CYREG_CLKDIST_CR), 0x08u);
 310              		.loc 1 258 0
 311 0040 0222     		movs	r2, #2
 312 0042 3B4B     		ldr	r3, .L26+24
 313 0044 1A70     		strb	r2, [r3]
 259:Generated_Source\PSoC5/cyfitter_cfg.c **** 
 314              		.loc 1 259 0
 315 0046 0822     		movs	r2, #8
 316 0048 4FF04023 		mov	r3, #1073758208
 317 004c 1A70     		strb	r2, [r3]
 262:Generated_Source\PSoC5/cyfitter_cfg.c **** 	CY_SET_XTND_REG8((void CYFAR *)(CYREG_X32_TR), 0x03u);
 318              		.loc 1 262 0
 319 004e F322     		movs	r2, #243
ARM GAS  C:\Users\ADMH2\AppData\Local\Temp\ccnv6mNa.s 			page 13


 320 0050 03F20A33 		addw	r3, r3, #778
 321 0054 1A70     		strb	r2, [r3]
 263:Generated_Source\PSoC5/cyfitter_cfg.c **** 	CY_SET_XTND_REG8((void CYFAR *)(CYREG_SLOWCLK_X32_CFG), 0x84u);
 322              		.loc 1 263 0
 323 0056 0323     		movs	r3, #3
 324 0058 2370     		strb	r3, [r4]
 264:Generated_Source\PSoC5/cyfitter_cfg.c **** 	CY_SET_XTND_REG8((void CYFAR *)(CYREG_SLOWCLK_X32_CR), 0x05u);
 325              		.loc 1 264 0
 326 005a 8422     		movs	r2, #132
 327 005c 354B     		ldr	r3, .L26+28
 328 005e 1A70     		strb	r2, [r3]
 265:Generated_Source\PSoC5/cyfitter_cfg.c **** 	/* Wait up to 1000000us for the XTAL 32kHz to lock */
 329              		.loc 1 265 0
 330 0060 0522     		movs	r2, #5
 331 0062 013B     		subs	r3, r3, #1
 332 0064 1A70     		strb	r2, [r3]
 333              	.LVL25:
 267:Generated_Source\PSoC5/cyfitter_cfg.c **** 	{ 
 334              		.loc 1 267 0
 335 0066 344C     		ldr	r4, .L26+32
 336 0068 04E0     		b	.L18
 337              	.LVL26:
 338              	.L20:
 270:Generated_Source\PSoC5/cyfitter_cfg.c **** 	}
 339              		.loc 1 270 0 discriminator 4
 340 006a 4FF4F070 		mov	r0, #480
 341 006e FFF7FEFF 		bl	CyDelayCycles
 342              	.LVL27:
 267:Generated_Source\PSoC5/cyfitter_cfg.c **** 	{ 
 343              		.loc 1 267 0 discriminator 4
 344 0072 013C     		subs	r4, r4, #1
 345              	.LVL28:
 346              	.L18:
 267:Generated_Source\PSoC5/cyfitter_cfg.c **** 	{ 
 347              		.loc 1 267 0 is_stmt 0 discriminator 1
 348 0074 24B1     		cbz	r4, .L19
 267:Generated_Source\PSoC5/cyfitter_cfg.c **** 	{ 
 349              		.loc 1 267 0 discriminator 3
 350 0076 314B     		ldr	r3, .L26+36
 351 0078 1B78     		ldrb	r3, [r3]	@ zero_extendqisi2
 352 007a 13F0200F 		tst	r3, #32
 353 007e F4D0     		beq	.L20
 354              	.L19:
 272:Generated_Source\PSoC5/cyfitter_cfg.c **** 
 355              		.loc 1 272 0 is_stmt 1
 356 0080 254B     		ldr	r3, .L26
 357 0082 1D70     		strb	r5, [r3]
 275:Generated_Source\PSoC5/cyfitter_cfg.c **** 	CY_SET_XTND_REG8((void CYFAR *)(CYREG_IMO_TR1), (CY_GET_XTND_REG8((void CYFAR *)CYREG_FLSHID_CUST_
 358              		.loc 1 275 0
 359 0084 0322     		movs	r2, #3
 360 0086 A3F59363 		sub	r3, r3, #1176
 361 008a 1A70     		strb	r2, [r3]
 276:Generated_Source\PSoC5/cyfitter_cfg.c **** 
 362              		.loc 1 276 0
 363 008c 2C4B     		ldr	r3, .L26+40
 364 008e 1B78     		ldrb	r3, [r3]	@ zero_extendqisi2
 365 0090 DBB2     		uxtb	r3, r3
ARM GAS  C:\Users\ADMH2\AppData\Local\Temp\ccnv6mNa.s 			page 14


 366 0092 2C4A     		ldr	r2, .L26+44
 367 0094 1370     		strb	r3, [r2]
 279:Generated_Source\PSoC5/cyfitter_cfg.c **** 	CY_SET_XTND_REG16((void CYFAR *)(CYREG_FASTCLK_PLL_CFG0), 0x1251u);
 368              		.loc 1 279 0
 369 0096 0822     		movs	r2, #8
 370 0098 2B4B     		ldr	r3, .L26+48
 371 009a 1A80     		strh	r2, [r3]	@ movhi
 280:Generated_Source\PSoC5/cyfitter_cfg.c **** 	/* Wait up to 250us for the PLL to lock */
 372              		.loc 1 280 0
 373 009c 41F25122 		movw	r2, #4689
 374 00a0 023B     		subs	r3, r3, #2
 375 00a2 1A80     		strh	r2, [r3]	@ movhi
 376              	.LVL29:
 282:Generated_Source\PSoC5/cyfitter_cfg.c **** 	for (timeout = 250u / 10u; (timeout > 0u) && (pllLock != 0x03u); timeout--)
 377              		.loc 1 282 0
 378 00a4 0024     		movs	r4, #0
 283:Generated_Source\PSoC5/cyfitter_cfg.c **** 	{ 
 379              		.loc 1 283 0
 380 00a6 1925     		movs	r5, #25
 381              	.LVL30:
 382 00a8 0CE0     		b	.L21
 383              	.LVL31:
 384              	.L23:
 285:Generated_Source\PSoC5/cyfitter_cfg.c **** 		CyDelayCycles(10u * 48u); /* Delay 10us based on 48MHz clock */
 385              		.loc 1 285 0 discriminator 4
 386 00aa 284B     		ldr	r3, .L26+52
 387 00ac 1B78     		ldrb	r3, [r3]	@ zero_extendqisi2
 388 00ae 03F00103 		and	r3, r3, #1
 389 00b2 43EA4404 		orr	r4, r3, r4, lsl #1
 390              	.LVL32:
 391 00b6 04F00304 		and	r4, r4, #3
 392              	.LVL33:
 286:Generated_Source\PSoC5/cyfitter_cfg.c **** 	}
 393              		.loc 1 286 0 discriminator 4
 394 00ba 4FF4F070 		mov	r0, #480
 395 00be FFF7FEFF 		bl	CyDelayCycles
 396              	.LVL34:
 283:Generated_Source\PSoC5/cyfitter_cfg.c **** 	{ 
 397              		.loc 1 283 0 discriminator 4
 398 00c2 013D     		subs	r5, r5, #1
 399              	.LVL35:
 400              	.L21:
 283:Generated_Source\PSoC5/cyfitter_cfg.c **** 	{ 
 401              		.loc 1 283 0 is_stmt 0 discriminator 1
 402 00c4 0DB1     		cbz	r5, .L22
 283:Generated_Source\PSoC5/cyfitter_cfg.c **** 	{ 
 403              		.loc 1 283 0 discriminator 3
 404 00c6 032C     		cmp	r4, #3
 405 00c8 EFD1     		bne	.L23
 406              	.L22:
 289:Generated_Source\PSoC5/cyfitter_cfg.c **** 	{
 407              		.loc 1 289 0 is_stmt 1
 408 00ca 15B9     		cbnz	r5, .L24
 291:Generated_Source\PSoC5/cyfitter_cfg.c **** 	}
 409              		.loc 1 291 0
 410 00cc 0320     		movs	r0, #3
 411 00ce FFF7FEFF 		bl	CyClockStartupError
ARM GAS  C:\Users\ADMH2\AppData\Local\Temp\ccnv6mNa.s 			page 15


 412              	.LVL36:
 413              	.L24:
 295:Generated_Source\PSoC5/cyfitter_cfg.c **** 	CY_SET_XTND_REG8((void CYFAR *)(CYREG_CLKDIST_MSTR0), 0x07u);
 414              		.loc 1 295 0
 415 00d2 1F4B     		ldr	r3, .L26+56
 416 00d4 4FF48072 		mov	r2, #256
 417 00d8 1A80     		strh	r2, [r3]	@ movhi
 296:Generated_Source\PSoC5/cyfitter_cfg.c **** 	CY_SET_XTND_REG8((void CYFAR *)(CYREG_CLKDIST_BCFG0), 0x00u);
 418              		.loc 1 296 0
 419 00da 0722     		movs	r2, #7
 420 00dc 1A70     		strb	r2, [r3]
 297:Generated_Source\PSoC5/cyfitter_cfg.c **** 	CY_SET_XTND_REG8((void CYFAR *)(CYREG_CLKDIST_BCFG2), 0x48u);
 421              		.loc 1 297 0
 422 00de 0022     		movs	r2, #0
 423 00e0 1C49     		ldr	r1, .L26+60
 424 00e2 0A70     		strb	r2, [r1]
 298:Generated_Source\PSoC5/cyfitter_cfg.c **** 	CY_SET_XTND_REG8((void CYFAR *)(CYREG_CLKDIST_MSTR0), 0x00u);
 425              		.loc 1 298 0
 426 00e4 4820     		movs	r0, #72
 427 00e6 0231     		adds	r1, r1, #2
 428 00e8 0870     		strb	r0, [r1]
 299:Generated_Source\PSoC5/cyfitter_cfg.c **** 	CY_SET_XTND_REG8((void CYFAR *)(CYREG_CLKDIST_LD), 0x02u);
 429              		.loc 1 299 0
 430 00ea 1A70     		strb	r2, [r3]
 300:Generated_Source\PSoC5/cyfitter_cfg.c **** 	CY_SET_XTND_REG8((void CYFAR *)(CYREG_CLKDIST_DLY1), 0x04u);
 431              		.loc 1 300 0
 432 00ec 0222     		movs	r2, #2
 433 00ee 033B     		subs	r3, r3, #3
 434 00f0 1A70     		strb	r2, [r3]
 301:Generated_Source\PSoC5/cyfitter_cfg.c **** 
 435              		.loc 1 301 0
 436 00f2 0422     		movs	r2, #4
 437 00f4 0A33     		adds	r3, r3, #10
 438 00f6 1A70     		strb	r2, [r3]
 303:Generated_Source\PSoC5/cyfitter_cfg.c **** 	CY_SET_XTND_REG8((void CYFAR *)(CYREG_PM_ACT_CFG1), ((CY_GET_XTND_REG8((void CYFAR *)CYREG_PM_ACT_
 439              		.loc 1 303 0
 440 00f8 174A     		ldr	r2, .L26+64
 441 00fa 1378     		ldrb	r3, [r2]	@ zero_extendqisi2
 442 00fc 43F00F03 		orr	r3, r3, #15
 443 0100 1370     		strb	r3, [r2]
 304:Generated_Source\PSoC5/cyfitter_cfg.c **** 	CY_SET_XTND_REG8((void CYFAR *)(CYREG_PM_ACT_CFG0), ((CY_GET_XTND_REG8((void CYFAR *)CYREG_PM_ACT_
 444              		.loc 1 304 0
 445 0102 013A     		subs	r2, r2, #1
 446 0104 1378     		ldrb	r3, [r2]	@ zero_extendqisi2
 447 0106 43F00103 		orr	r3, r3, #1
 448 010a 1370     		strb	r3, [r2]
 305:Generated_Source\PSoC5/cyfitter_cfg.c **** }
 449              		.loc 1 305 0
 450 010c 013A     		subs	r2, r2, #1
 451 010e 1378     		ldrb	r3, [r2]	@ zero_extendqisi2
 452 0110 43F08003 		orr	r3, r3, #128
 453 0114 1370     		strb	r3, [r2]
 454 0116 38BD     		pop	{r3, r4, r5, pc}
 455              	.LVL37:
 456              	.L27:
 457              		.align	2
 458              	.L26:
ARM GAS  C:\Users\ADMH2\AppData\Local\Temp\ccnv6mNa.s 			page 16


 459 0118 98460040 		.word	1073759896
 460 011c 80400040 		.word	1073758336
 461 0120 82400040 		.word	1073758338
 462 0124 8C400040 		.word	1073758348
 463 0128 F8040048 		.word	1207960824
 464 012c 00410040 		.word	1073758464
 465 0130 00430040 		.word	1073758976
 466 0134 09430040 		.word	1073758985
 467 0138 A0860100 		.word	100000
 468 013c 08430040 		.word	1073758984
 469 0140 08010049 		.word	1224737032
 470 0144 A1460040 		.word	1073759905
 471 0148 22420040 		.word	1073758754
 472 014c 25420040 		.word	1073758757
 473 0150 04400040 		.word	1073758212
 474 0154 06400040 		.word	1073758214
 475 0158 A2430040 		.word	1073759138
 476              		.cfi_endproc
 477              	.LFE5:
 478              		.size	ClockSetup, .-ClockSetup
 479              		.section	.text.SetAnalogRoutingPumps,"ax",%progbits
 480              		.align	2
 481              		.global	SetAnalogRoutingPumps
 482              		.thumb
 483              		.thumb_func
 484              		.type	SetAnalogRoutingPumps, %function
 485              	SetAnalogRoutingPumps:
 486              	.LFB7:
 345:Generated_Source\PSoC5/cyfitter_cfg.c **** }
 346:Generated_Source\PSoC5/cyfitter_cfg.c **** 
 347:Generated_Source\PSoC5/cyfitter_cfg.c **** 
 348:Generated_Source\PSoC5/cyfitter_cfg.c **** /*******************************************************************************
 349:Generated_Source\PSoC5/cyfitter_cfg.c **** * Function Name: SetAnalogRoutingPumps
 350:Generated_Source\PSoC5/cyfitter_cfg.c **** ********************************************************************************
 351:Generated_Source\PSoC5/cyfitter_cfg.c **** *
 352:Generated_Source\PSoC5/cyfitter_cfg.c **** * Summary:
 353:Generated_Source\PSoC5/cyfitter_cfg.c **** * Enables or disables the analog pumps feeding analog routing switches.
 354:Generated_Source\PSoC5/cyfitter_cfg.c **** * Intended to be called at startup, based on the Vdda system configuration;
 355:Generated_Source\PSoC5/cyfitter_cfg.c **** * may be called during operation when the user informs us that the Vdda voltage
 356:Generated_Source\PSoC5/cyfitter_cfg.c **** * crossed the pump threshold.
 357:Generated_Source\PSoC5/cyfitter_cfg.c **** *
 358:Generated_Source\PSoC5/cyfitter_cfg.c **** * Parameters:
 359:Generated_Source\PSoC5/cyfitter_cfg.c **** *  enabled - 1 to enable the pumps, 0 to disable the pumps
 360:Generated_Source\PSoC5/cyfitter_cfg.c **** *
 361:Generated_Source\PSoC5/cyfitter_cfg.c **** * Return:
 362:Generated_Source\PSoC5/cyfitter_cfg.c **** *  void
 363:Generated_Source\PSoC5/cyfitter_cfg.c **** *
 364:Generated_Source\PSoC5/cyfitter_cfg.c **** *******************************************************************************/
 365:Generated_Source\PSoC5/cyfitter_cfg.c **** void SetAnalogRoutingPumps(uint8 enabled)
 366:Generated_Source\PSoC5/cyfitter_cfg.c **** {
 487              		.loc 1 366 0
 488              		.cfi_startproc
 489              		@ args = 0, pretend = 0, frame = 0
 490              		@ frame_needed = 0, uses_anonymous_args = 0
 491              		@ link register save eliminated.
 492              	.LVL38:
 367:Generated_Source\PSoC5/cyfitter_cfg.c **** 	uint8 regValue = CY_GET_XTND_REG8((void CYFAR *)CYREG_PUMP_CR0);
ARM GAS  C:\Users\ADMH2\AppData\Local\Temp\ccnv6mNa.s 			page 17


 493              		.loc 1 367 0
 494 0000 054B     		ldr	r3, .L31
 495 0002 1B78     		ldrb	r3, [r3]	@ zero_extendqisi2
 496 0004 DBB2     		uxtb	r3, r3
 497              	.LVL39:
 368:Generated_Source\PSoC5/cyfitter_cfg.c **** 	if (enabled != 0u)
 498              		.loc 1 368 0
 499 0006 10B1     		cbz	r0, .L29
 369:Generated_Source\PSoC5/cyfitter_cfg.c **** 	{
 370:Generated_Source\PSoC5/cyfitter_cfg.c **** 		regValue |= 0x22u;
 500              		.loc 1 370 0
 501 0008 43F02203 		orr	r3, r3, #34
 502              	.LVL40:
 503 000c 01E0     		b	.L30
 504              	.L29:
 371:Generated_Source\PSoC5/cyfitter_cfg.c **** 	}
 372:Generated_Source\PSoC5/cyfitter_cfg.c **** 	else
 373:Generated_Source\PSoC5/cyfitter_cfg.c **** 	{
 374:Generated_Source\PSoC5/cyfitter_cfg.c **** 		regValue &= (uint8)~0x22u;
 505              		.loc 1 374 0
 506 000e 03F0DD03 		and	r3, r3, #221
 507              	.LVL41:
 508              	.L30:
 375:Generated_Source\PSoC5/cyfitter_cfg.c **** 	}
 376:Generated_Source\PSoC5/cyfitter_cfg.c **** 	CY_SET_XTND_REG8((void CYFAR *)CYREG_PUMP_CR0, regValue);
 509              		.loc 1 376 0
 510 0012 014A     		ldr	r2, .L31
 511 0014 1370     		strb	r3, [r2]
 512 0016 7047     		bx	lr
 513              	.L32:
 514              		.align	2
 515              	.L31:
 516 0018 76580040 		.word	1073764470
 517              		.cfi_endproc
 518              	.LFE7:
 519              		.size	SetAnalogRoutingPumps, .-SetAnalogRoutingPumps
 520              		.section	.text.AMux_1_Set,"ax",%progbits
 521              		.align	2
 522              		.global	AMux_1_Set
 523              		.thumb
 524              		.thumb_func
 525              		.type	AMux_1_Set, %function
 526              	AMux_1_Set:
 527              	.LFB8:
 377:Generated_Source\PSoC5/cyfitter_cfg.c **** }
 378:Generated_Source\PSoC5/cyfitter_cfg.c **** 
 379:Generated_Source\PSoC5/cyfitter_cfg.c **** 
 380:Generated_Source\PSoC5/cyfitter_cfg.c **** #define CY_AMUX_UNUSED CYREG_BOOST_SR
 381:Generated_Source\PSoC5/cyfitter_cfg.c **** /* This is an implementation detail of the AMux. Code that depends on it may be
 382:Generated_Source\PSoC5/cyfitter_cfg.c ****    incompatible with other versions of PSoC Creator. */
 383:Generated_Source\PSoC5/cyfitter_cfg.c **** uint8 CYXDATA * const CYCODE AMux_1__addrTable[4] = {
 384:Generated_Source\PSoC5/cyfitter_cfg.c **** 	(uint8 CYXDATA *)CYREG_PRT1_AG, (uint8 CYXDATA *)CYREG_SAR1_SW0, 
 385:Generated_Source\PSoC5/cyfitter_cfg.c **** 	(uint8 CYXDATA *)CYREG_PRT1_AG, (uint8 CYXDATA *)CYREG_SAR1_SW0, 
 386:Generated_Source\PSoC5/cyfitter_cfg.c **** };
 387:Generated_Source\PSoC5/cyfitter_cfg.c **** 
 388:Generated_Source\PSoC5/cyfitter_cfg.c **** /* This is an implementation detail of the AMux. Code that depends on it may be
 389:Generated_Source\PSoC5/cyfitter_cfg.c ****    incompatible with other versions of PSoC Creator. */
ARM GAS  C:\Users\ADMH2\AppData\Local\Temp\ccnv6mNa.s 			page 18


 390:Generated_Source\PSoC5/cyfitter_cfg.c **** const uint8 CYCODE AMux_1__maskTable[4] = {
 391:Generated_Source\PSoC5/cyfitter_cfg.c **** 	0x40u, 0x04u, 
 392:Generated_Source\PSoC5/cyfitter_cfg.c **** 	0x20u, 0x02u, 
 393:Generated_Source\PSoC5/cyfitter_cfg.c **** };
 394:Generated_Source\PSoC5/cyfitter_cfg.c **** 
 395:Generated_Source\PSoC5/cyfitter_cfg.c **** /*******************************************************************************
 396:Generated_Source\PSoC5/cyfitter_cfg.c **** * Function Name: AMux_1_Set
 397:Generated_Source\PSoC5/cyfitter_cfg.c **** ********************************************************************************
 398:Generated_Source\PSoC5/cyfitter_cfg.c **** * Summary:
 399:Generated_Source\PSoC5/cyfitter_cfg.c **** *  This function is used to set a particular channel as active on the AMux.
 400:Generated_Source\PSoC5/cyfitter_cfg.c **** *
 401:Generated_Source\PSoC5/cyfitter_cfg.c **** * Parameters:  
 402:Generated_Source\PSoC5/cyfitter_cfg.c **** *   channel - The mux channel input to set as active
 403:Generated_Source\PSoC5/cyfitter_cfg.c **** *
 404:Generated_Source\PSoC5/cyfitter_cfg.c **** * Return:
 405:Generated_Source\PSoC5/cyfitter_cfg.c **** *   void
 406:Generated_Source\PSoC5/cyfitter_cfg.c **** *
 407:Generated_Source\PSoC5/cyfitter_cfg.c **** *******************************************************************************/
 408:Generated_Source\PSoC5/cyfitter_cfg.c **** void AMux_1_Set(uint8 channel)
 409:Generated_Source\PSoC5/cyfitter_cfg.c **** {
 528              		.loc 1 409 0
 529              		.cfi_startproc
 530              		@ args = 0, pretend = 0, frame = 0
 531              		@ frame_needed = 0, uses_anonymous_args = 0
 532              		@ link register save eliminated.
 533              	.LVL42:
 410:Generated_Source\PSoC5/cyfitter_cfg.c **** 	if (channel < 2)
 534              		.loc 1 410 0
 535 0000 0128     		cmp	r0, #1
 536 0002 14D8     		bhi	.L37
 409:Generated_Source\PSoC5/cyfitter_cfg.c **** 	if (channel < 2)
 537              		.loc 1 409 0
 538 0004 10B4     		push	{r4}
 539              		.cfi_def_cfa_offset 4
 540              		.cfi_offset 4, -4
 411:Generated_Source\PSoC5/cyfitter_cfg.c **** 	{
 412:Generated_Source\PSoC5/cyfitter_cfg.c **** 		channel += channel;
 541              		.loc 1 412 0
 542 0006 4000     		lsls	r0, r0, #1
 543              	.LVL43:
 544 0008 C0B2     		uxtb	r0, r0
 545              	.LVL44:
 413:Generated_Source\PSoC5/cyfitter_cfg.c **** 		*AMux_1__addrTable[channel] |= AMux_1__maskTable[channel];
 546              		.loc 1 413 0
 547 000a 094B     		ldr	r3, .L38
 548 000c 53F82010 		ldr	r1, [r3, r0, lsl #2]
 549 0010 1A18     		adds	r2, r3, r0
 550 0012 147C     		ldrb	r4, [r2, #16]	@ zero_extendqisi2
 551 0014 0A78     		ldrb	r2, [r1]	@ zero_extendqisi2
 552 0016 2243     		orrs	r2, r2, r4
 553 0018 0A70     		strb	r2, [r1]
 414:Generated_Source\PSoC5/cyfitter_cfg.c **** 		channel++;
 554              		.loc 1 414 0
 555 001a 0130     		adds	r0, r0, #1
 556              	.LVL45:
 557 001c C0B2     		uxtb	r0, r0
 558              	.LVL46:
ARM GAS  C:\Users\ADMH2\AppData\Local\Temp\ccnv6mNa.s 			page 19


 415:Generated_Source\PSoC5/cyfitter_cfg.c **** 		*AMux_1__addrTable[channel] |= AMux_1__maskTable[channel];
 559              		.loc 1 415 0
 560 001e 53F82020 		ldr	r2, [r3, r0, lsl #2]
 561 0022 1844     		add	r0, r0, r3
 562              	.LVL47:
 563 0024 017C     		ldrb	r1, [r0, #16]	@ zero_extendqisi2
 564 0026 1378     		ldrb	r3, [r2]	@ zero_extendqisi2
 565 0028 0B43     		orrs	r3, r3, r1
 566 002a 1370     		strb	r3, [r2]
 416:Generated_Source\PSoC5/cyfitter_cfg.c **** 	}
 417:Generated_Source\PSoC5/cyfitter_cfg.c **** }
 567              		.loc 1 417 0
 568 002c 10BC     		pop	{r4}
 569              		.cfi_restore 4
 570              		.cfi_def_cfa_offset 0
 571              	.LVL48:
 572              	.L37:
 573 002e 7047     		bx	lr
 574              	.L39:
 575              		.align	2
 576              	.L38:
 577 0030 00000000 		.word	.LANCHOR0
 578              		.cfi_endproc
 579              	.LFE8:
 580              		.size	AMux_1_Set, .-AMux_1_Set
 581              		.section	.text.AMux_1_Unset,"ax",%progbits
 582              		.align	2
 583              		.global	AMux_1_Unset
 584              		.thumb
 585              		.thumb_func
 586              		.type	AMux_1_Unset, %function
 587              	AMux_1_Unset:
 588              	.LFB9:
 418:Generated_Source\PSoC5/cyfitter_cfg.c **** 
 419:Generated_Source\PSoC5/cyfitter_cfg.c **** /*******************************************************************************
 420:Generated_Source\PSoC5/cyfitter_cfg.c **** * Function Name: AMux_1_Unset
 421:Generated_Source\PSoC5/cyfitter_cfg.c **** ********************************************************************************
 422:Generated_Source\PSoC5/cyfitter_cfg.c **** * Summary:
 423:Generated_Source\PSoC5/cyfitter_cfg.c **** *  This function is used to clear a particular channel from being active on the
 424:Generated_Source\PSoC5/cyfitter_cfg.c **** *  AMux.
 425:Generated_Source\PSoC5/cyfitter_cfg.c **** *
 426:Generated_Source\PSoC5/cyfitter_cfg.c **** * Parameters:  
 427:Generated_Source\PSoC5/cyfitter_cfg.c **** *   channel - The mux channel input to mark inactive
 428:Generated_Source\PSoC5/cyfitter_cfg.c **** *
 429:Generated_Source\PSoC5/cyfitter_cfg.c **** * Return:
 430:Generated_Source\PSoC5/cyfitter_cfg.c **** *   void
 431:Generated_Source\PSoC5/cyfitter_cfg.c **** *
 432:Generated_Source\PSoC5/cyfitter_cfg.c **** *******************************************************************************/
 433:Generated_Source\PSoC5/cyfitter_cfg.c **** void AMux_1_Unset(uint8 channel)
 434:Generated_Source\PSoC5/cyfitter_cfg.c **** {
 589              		.loc 1 434 0
 590              		.cfi_startproc
 591              		@ args = 0, pretend = 0, frame = 0
 592              		@ frame_needed = 0, uses_anonymous_args = 0
 593              		@ link register save eliminated.
 594              	.LVL49:
 435:Generated_Source\PSoC5/cyfitter_cfg.c **** 	if (channel < 2)
ARM GAS  C:\Users\ADMH2\AppData\Local\Temp\ccnv6mNa.s 			page 20


 595              		.loc 1 435 0
 596 0000 0128     		cmp	r0, #1
 597 0002 16D8     		bhi	.L44
 434:Generated_Source\PSoC5/cyfitter_cfg.c **** 	if (channel < 2)
 598              		.loc 1 434 0
 599 0004 10B4     		push	{r4}
 600              		.cfi_def_cfa_offset 4
 601              		.cfi_offset 4, -4
 436:Generated_Source\PSoC5/cyfitter_cfg.c **** 	{
 437:Generated_Source\PSoC5/cyfitter_cfg.c **** 		channel += channel;
 602              		.loc 1 437 0
 603 0006 4000     		lsls	r0, r0, #1
 604              	.LVL50:
 605 0008 C0B2     		uxtb	r0, r0
 606              	.LVL51:
 438:Generated_Source\PSoC5/cyfitter_cfg.c **** 		*AMux_1__addrTable[channel] &= (uint8)~AMux_1__maskTable[channel];
 607              		.loc 1 438 0
 608 000a 0A4B     		ldr	r3, .L45
 609 000c 53F82010 		ldr	r1, [r3, r0, lsl #2]
 610 0010 1A18     		adds	r2, r3, r0
 611 0012 147C     		ldrb	r4, [r2, #16]	@ zero_extendqisi2
 612 0014 0A78     		ldrb	r2, [r1]	@ zero_extendqisi2
 613 0016 22EA0402 		bic	r2, r2, r4
 614 001a 0A70     		strb	r2, [r1]
 439:Generated_Source\PSoC5/cyfitter_cfg.c **** 		channel++;
 615              		.loc 1 439 0
 616 001c 0130     		adds	r0, r0, #1
 617              	.LVL52:
 618 001e C0B2     		uxtb	r0, r0
 619              	.LVL53:
 440:Generated_Source\PSoC5/cyfitter_cfg.c **** 		*AMux_1__addrTable[channel] &= (uint8)~AMux_1__maskTable[channel];
 620              		.loc 1 440 0
 621 0020 53F82020 		ldr	r2, [r3, r0, lsl #2]
 622 0024 1844     		add	r0, r0, r3
 623              	.LVL54:
 624 0026 017C     		ldrb	r1, [r0, #16]	@ zero_extendqisi2
 625 0028 1378     		ldrb	r3, [r2]	@ zero_extendqisi2
 626 002a 23EA0103 		bic	r3, r3, r1
 627 002e 1370     		strb	r3, [r2]
 441:Generated_Source\PSoC5/cyfitter_cfg.c **** 	}
 442:Generated_Source\PSoC5/cyfitter_cfg.c **** }
 628              		.loc 1 442 0
 629 0030 10BC     		pop	{r4}
 630              		.cfi_restore 4
 631              		.cfi_def_cfa_offset 0
 632              	.LVL55:
 633              	.L44:
 634 0032 7047     		bx	lr
 635              	.L46:
 636              		.align	2
 637              	.L45:
 638 0034 00000000 		.word	.LANCHOR0
 639              		.cfi_endproc
 640              	.LFE9:
 641              		.size	AMux_1_Unset, .-AMux_1_Unset
 642              		.section	.text.cyfitter_cfg,"ax",%progbits
 643              		.align	2
ARM GAS  C:\Users\ADMH2\AppData\Local\Temp\ccnv6mNa.s 			page 21


 644              		.global	cyfitter_cfg
 645              		.thumb
 646              		.thumb_func
 647              		.type	cyfitter_cfg, %function
 648              	cyfitter_cfg:
 649              	.LFB10:
 443:Generated_Source\PSoC5/cyfitter_cfg.c **** 
 444:Generated_Source\PSoC5/cyfitter_cfg.c **** 
 445:Generated_Source\PSoC5/cyfitter_cfg.c **** 
 446:Generated_Source\PSoC5/cyfitter_cfg.c **** /*******************************************************************************
 447:Generated_Source\PSoC5/cyfitter_cfg.c **** * Function Name: cyfitter_cfg
 448:Generated_Source\PSoC5/cyfitter_cfg.c **** ********************************************************************************
 449:Generated_Source\PSoC5/cyfitter_cfg.c **** * Summary:
 450:Generated_Source\PSoC5/cyfitter_cfg.c **** *  This function is called by the start-up code for the selected device. It
 451:Generated_Source\PSoC5/cyfitter_cfg.c **** *  performs all of the necessary device configuration based on the design
 452:Generated_Source\PSoC5/cyfitter_cfg.c **** *  settings.  This includes settings from the Design Wide Resources (DWR) such
 453:Generated_Source\PSoC5/cyfitter_cfg.c **** *  as Clocks and Pins as well as any component configuration that is necessary.
 454:Generated_Source\PSoC5/cyfitter_cfg.c **** *
 455:Generated_Source\PSoC5/cyfitter_cfg.c **** * Parameters:
 456:Generated_Source\PSoC5/cyfitter_cfg.c **** *   void
 457:Generated_Source\PSoC5/cyfitter_cfg.c **** *
 458:Generated_Source\PSoC5/cyfitter_cfg.c **** * Return:
 459:Generated_Source\PSoC5/cyfitter_cfg.c **** *   void
 460:Generated_Source\PSoC5/cyfitter_cfg.c **** *
 461:Generated_Source\PSoC5/cyfitter_cfg.c **** *******************************************************************************/
 462:Generated_Source\PSoC5/cyfitter_cfg.c **** 
 463:Generated_Source\PSoC5/cyfitter_cfg.c **** void cyfitter_cfg(void)
 464:Generated_Source\PSoC5/cyfitter_cfg.c **** {
 650              		.loc 1 464 0
 651              		.cfi_startproc
 652              		@ args = 0, pretend = 0, frame = 0
 653              		@ frame_needed = 0, uses_anonymous_args = 0
 654 0000 38B5     		push	{r3, r4, r5, lr}
 655              		.cfi_def_cfa_offset 16
 656              		.cfi_offset 3, -16
 657              		.cfi_offset 4, -12
 658              		.cfi_offset 5, -8
 659              		.cfi_offset 14, -4
 465:Generated_Source\PSoC5/cyfitter_cfg.c **** #ifdef CYGlobalIntDisable
 466:Generated_Source\PSoC5/cyfitter_cfg.c **** 	/* Disable interrupts by default. Let user enable if/when they want. */
 467:Generated_Source\PSoC5/cyfitter_cfg.c **** 	CYGlobalIntDisable
 660              		.loc 1 467 0
 661              		.syntax unified
 662              	@ 467 "Generated_Source\PSoC5\cyfitter_cfg.c" 1
 663 0002 72B6     		CPSID   i
 664              	@ 0 "" 2
 468:Generated_Source\PSoC5/cyfitter_cfg.c **** #endif
 469:Generated_Source\PSoC5/cyfitter_cfg.c **** 
 470:Generated_Source\PSoC5/cyfitter_cfg.c **** 	/* Enable/Disable Debug functionality based on settings from System DWR */
 471:Generated_Source\PSoC5/cyfitter_cfg.c **** 	CY_SET_XTND_REG8((void CYFAR *)CYREG_MLOGIC_DEBUG, (CY_GET_XTND_REG8((void CYFAR *)CYREG_MLOGIC_DE
 665              		.loc 1 471 0
 666              		.thumb
 667              		.syntax unified
 668 0004 384A     		ldr	r2, .L51
 669 0006 1378     		ldrb	r3, [r2]	@ zero_extendqisi2
 670 0008 43F00403 		orr	r3, r3, #4
 671 000c 1370     		strb	r3, [r2]
ARM GAS  C:\Users\ADMH2\AppData\Local\Temp\ccnv6mNa.s 			page 22


 672              	.LVL56:
 673              	.LBB3:
 472:Generated_Source\PSoC5/cyfitter_cfg.c **** 
 473:Generated_Source\PSoC5/cyfitter_cfg.c **** 	{
 474:Generated_Source\PSoC5/cyfitter_cfg.c **** 
 475:Generated_Source\PSoC5/cyfitter_cfg.c **** 		CYPACKED typedef struct {
 476:Generated_Source\PSoC5/cyfitter_cfg.c **** 			void CYFAR *address;
 477:Generated_Source\PSoC5/cyfitter_cfg.c **** 			uint16 size;
 478:Generated_Source\PSoC5/cyfitter_cfg.c **** 		} CYPACKED_ATTR cfg_memset_t;
 479:Generated_Source\PSoC5/cyfitter_cfg.c **** 
 480:Generated_Source\PSoC5/cyfitter_cfg.c **** 		static const cfg_memset_t CYCODE cfg_memset_list[] = {
 481:Generated_Source\PSoC5/cyfitter_cfg.c **** 			/* address, size */
 482:Generated_Source\PSoC5/cyfitter_cfg.c **** 			{(void CYFAR *)(CYREG_TMR0_CFG0), 12u},
 483:Generated_Source\PSoC5/cyfitter_cfg.c **** 			{(void CYFAR *)(CYREG_PRT4_DR), 48u},
 484:Generated_Source\PSoC5/cyfitter_cfg.c **** 			{(void CYFAR *)(CYDEV_UCFG_B0_P0_U0_BASE), 4096u},
 485:Generated_Source\PSoC5/cyfitter_cfg.c **** 			{(void CYFAR *)(CYDEV_UCFG_B1_P2_U0_BASE), 2048u},
 486:Generated_Source\PSoC5/cyfitter_cfg.c **** 			{(void CYFAR *)(CYDEV_UCFG_DSI0_BASE), 2560u},
 487:Generated_Source\PSoC5/cyfitter_cfg.c **** 			{(void CYFAR *)(CYDEV_UCFG_DSI12_BASE), 512u},
 488:Generated_Source\PSoC5/cyfitter_cfg.c **** 			{(void CYFAR *)(CYREG_BCTL0_MDCLK_EN), 32u},
 489:Generated_Source\PSoC5/cyfitter_cfg.c **** 		};
 490:Generated_Source\PSoC5/cyfitter_cfg.c **** 
 491:Generated_Source\PSoC5/cyfitter_cfg.c **** 		uint8 CYDATA i;
 492:Generated_Source\PSoC5/cyfitter_cfg.c **** 
 493:Generated_Source\PSoC5/cyfitter_cfg.c **** 		/* Zero out critical memory blocks before beginning configuration */
 494:Generated_Source\PSoC5/cyfitter_cfg.c **** 		for (i = 0u; i < (sizeof(cfg_memset_list)/sizeof(cfg_memset_list[0])); i++)
 674              		.loc 1 494 0
 675 000e 0024     		movs	r4, #0
 676 0010 0BE0     		b	.L48
 677              	.LVL57:
 678              	.L49:
 679              	.LBB4:
 495:Generated_Source\PSoC5/cyfitter_cfg.c **** 		{
 496:Generated_Source\PSoC5/cyfitter_cfg.c **** 			const cfg_memset_t CYCODE * CYDATA ms = &cfg_memset_list[i];
 497:Generated_Source\PSoC5/cyfitter_cfg.c **** 			CYMEMZERO(ms->address, (size_t)(uint32)(ms->size));
 680              		.loc 1 497 0 discriminator 3
 681 0012 3648     		ldr	r0, .L51+4
 682 0014 6300     		lsls	r3, r4, #1
 683 0016 1A19     		adds	r2, r3, r4
 684 0018 5100     		lsls	r1, r2, #1
 685 001a 0144     		add	r1, r1, r0
 686 001c 0A46     		mov	r2, r1
 687 001e 098B     		ldrh	r1, [r1, #24]
 688 0020 5069     		ldr	r0, [r2, #20]	@ unaligned
 689 0022 FFF7FEFF 		bl	CYMEMZERO
 690              	.LVL58:
 691              	.LBE4:
 494:Generated_Source\PSoC5/cyfitter_cfg.c **** 		{
 692              		.loc 1 494 0 discriminator 3
 693 0026 0134     		adds	r4, r4, #1
 694              	.LVL59:
 695 0028 E4B2     		uxtb	r4, r4
 696              	.LVL60:
 697              	.L48:
 494:Generated_Source\PSoC5/cyfitter_cfg.c **** 		{
 698              		.loc 1 494 0 is_stmt 0 discriminator 1
 699 002a 062C     		cmp	r4, #6
 700 002c F1D9     		bls	.L49
ARM GAS  C:\Users\ADMH2\AppData\Local\Temp\ccnv6mNa.s 			page 23


 498:Generated_Source\PSoC5/cyfitter_cfg.c **** 		}
 499:Generated_Source\PSoC5/cyfitter_cfg.c **** 
 500:Generated_Source\PSoC5/cyfitter_cfg.c **** 		cfg_write_bytes32(cy_cfg_addr_table, cy_cfg_data_table);
 701              		.loc 1 500 0 is_stmt 1
 702 002e 3049     		ldr	r1, .L51+8
 703 0030 4FF09040 		mov	r0, #1207959552
 704 0034 FFF7FEFF 		bl	cfg_write_bytes32
 705              	.LVL61:
 501:Generated_Source\PSoC5/cyfitter_cfg.c **** 
 502:Generated_Source\PSoC5/cyfitter_cfg.c **** 		/* Perform normal device configuration. Order is not critical for these items. */
 503:Generated_Source\PSoC5/cyfitter_cfg.c **** 		CYMEMZERO((void CYFAR *)(CYREG_PHUB_CFGMEM0_CFG0), 4u);
 706              		.loc 1 503 0
 707 0038 0421     		movs	r1, #4
 708 003a 2E48     		ldr	r0, .L51+12
 709 003c FFF7FEFF 		bl	CYMEMZERO
 710              	.LVL62:
 504:Generated_Source\PSoC5/cyfitter_cfg.c **** 		CYMEMZERO((void CYFAR *)(CYREG_PHUB_CFGMEM1_CFG0), 4u);
 711              		.loc 1 504 0
 712 0040 0421     		movs	r1, #4
 713 0042 2D48     		ldr	r0, .L51+16
 714 0044 FFF7FEFF 		bl	CYMEMZERO
 715              	.LVL63:
 505:Generated_Source\PSoC5/cyfitter_cfg.c **** 		CYCONFIGCPY((void CYFAR *)(CYREG_PHUB_CFGMEM2_CFG0), (const void CYFAR *)(BS_PHUB_CFGMEM2_VAL), 4
 716              		.loc 1 505 0
 717 0048 0422     		movs	r2, #4
 718 004a 2C49     		ldr	r1, .L51+20
 719 004c 2C48     		ldr	r0, .L51+24
 720 004e FFF7FEFF 		bl	CYCONFIGCPY
 721              	.LVL64:
 506:Generated_Source\PSoC5/cyfitter_cfg.c **** 
 507:Generated_Source\PSoC5/cyfitter_cfg.c **** 		/* Enable digital routing */
 508:Generated_Source\PSoC5/cyfitter_cfg.c **** 		CY_SET_XTND_REG8((void CYFAR *)CYREG_BCTL0_BANK_CTL, CY_GET_XTND_REG8((void CYFAR *)CYREG_BCTL0_B
 722              		.loc 1 508 0
 723 0052 2C4A     		ldr	r2, .L51+28
 724 0054 1378     		ldrb	r3, [r2]	@ zero_extendqisi2
 725 0056 43F00203 		orr	r3, r3, #2
 726 005a 1370     		strb	r3, [r2]
 509:Generated_Source\PSoC5/cyfitter_cfg.c **** 		CY_SET_XTND_REG8((void CYFAR *)CYREG_BCTL1_BANK_CTL, CY_GET_XTND_REG8((void CYFAR *)CYREG_BCTL1_B
 727              		.loc 1 509 0
 728 005c 1032     		adds	r2, r2, #16
 729 005e 1378     		ldrb	r3, [r2]	@ zero_extendqisi2
 730 0060 43F00203 		orr	r3, r3, #2
 731 0064 1370     		strb	r3, [r2]
 510:Generated_Source\PSoC5/cyfitter_cfg.c **** 
 511:Generated_Source\PSoC5/cyfitter_cfg.c **** 		/* Enable UDB array */
 512:Generated_Source\PSoC5/cyfitter_cfg.c **** 		CY_SET_XTND_REG8((void CYFAR *)CYREG_PM_ACT_CFG0, CY_GET_XTND_REG8((void CYFAR *)CYREG_PM_ACT_CFG
 732              		.loc 1 512 0
 733 0066 284C     		ldr	r4, .L51+32
 734              	.LVL65:
 735 0068 2378     		ldrb	r3, [r4]	@ zero_extendqisi2
 736 006a 43F04003 		orr	r3, r3, #64
 737 006e 2370     		strb	r3, [r4]
 513:Generated_Source\PSoC5/cyfitter_cfg.c **** 		CY_SET_XTND_REG8((void CYFAR *)CYREG_PM_AVAIL_CR2, CY_GET_XTND_REG8((void CYFAR *)CYREG_PM_AVAIL_
 738              		.loc 1 513 0
 739 0070 A2F58632 		sub	r2, r2, #68608
 740 0074 513A     		subs	r2, r2, #81
 741 0076 1378     		ldrb	r3, [r2]	@ zero_extendqisi2
ARM GAS  C:\Users\ADMH2\AppData\Local\Temp\ccnv6mNa.s 			page 24


 742 0078 43F01003 		orr	r3, r3, #16
 743 007c 1370     		strb	r3, [r2]
 744              	.LBE3:
 514:Generated_Source\PSoC5/cyfitter_cfg.c **** 	}
 515:Generated_Source\PSoC5/cyfitter_cfg.c **** 
 516:Generated_Source\PSoC5/cyfitter_cfg.c **** 
 517:Generated_Source\PSoC5/cyfitter_cfg.c **** 	/* Perform second pass device configuration. These items must be configured in specific order afte
 518:Generated_Source\PSoC5/cyfitter_cfg.c **** 	CYCONFIGCPY((void CYFAR *)(CYREG_PRT0_DM0), (const void CYFAR *)(BS_IOPINS0_0_VAL), 8u);
 745              		.loc 1 518 0
 746 007e 0822     		movs	r2, #8
 747 0080 2249     		ldr	r1, .L51+36
 748 0082 2348     		ldr	r0, .L51+40
 749 0084 FFF7FEFF 		bl	CYCONFIGCPY
 750              	.LVL66:
 519:Generated_Source\PSoC5/cyfitter_cfg.c **** 	CYCONFIGCPY((void CYFAR *)(CYREG_PRT12_DM0), (const void CYFAR *)(BS_IOPINS0_7_VAL), 8u);
 751              		.loc 1 519 0
 752 0088 0822     		movs	r2, #8
 753 008a 2249     		ldr	r1, .L51+44
 754 008c 2248     		ldr	r0, .L51+48
 755 008e FFF7FEFF 		bl	CYCONFIGCPY
 756              	.LVL67:
 520:Generated_Source\PSoC5/cyfitter_cfg.c **** 	CYCONFIGCPY((void CYFAR *)(CYREG_PRT15_DM0), (const void CYFAR *)(BS_IOPINS0_8_VAL), 8u);
 757              		.loc 1 520 0
 758 0092 0822     		movs	r2, #8
 759 0094 2149     		ldr	r1, .L51+52
 760 0096 2248     		ldr	r0, .L51+56
 761 0098 FFF7FEFF 		bl	CYCONFIGCPY
 762              	.LVL68:
 521:Generated_Source\PSoC5/cyfitter_cfg.c **** 	CYCONFIGCPY((void CYFAR *)(CYREG_PRT1_DM0), (const void CYFAR *)(BS_IOPINS0_1_VAL), 8u);
 763              		.loc 1 521 0
 764 009c 0822     		movs	r2, #8
 765 009e 2149     		ldr	r1, .L51+60
 766 00a0 2148     		ldr	r0, .L51+64
 767 00a2 FFF7FEFF 		bl	CYCONFIGCPY
 768              	.LVL69:
 522:Generated_Source\PSoC5/cyfitter_cfg.c **** 	CYCONFIGCPY((void CYFAR *)(CYREG_PRT2_DM0), (const void CYFAR *)(BS_IOPINS0_2_VAL), 8u);
 769              		.loc 1 522 0
 770 00a6 0822     		movs	r2, #8
 771 00a8 2049     		ldr	r1, .L51+68
 772 00aa 2148     		ldr	r0, .L51+72
 773 00ac FFF7FEFF 		bl	CYCONFIGCPY
 774              	.LVL70:
 523:Generated_Source\PSoC5/cyfitter_cfg.c **** 	CYCONFIGCPY((void CYFAR *)(CYREG_PRT3_DR), (const void CYFAR *)(BS_IOPINS0_3_VAL), 10u);
 775              		.loc 1 523 0
 776 00b0 0A22     		movs	r2, #10
 777 00b2 2049     		ldr	r1, .L51+76
 778 00b4 2048     		ldr	r0, .L51+80
 779 00b6 FFF7FEFF 		bl	CYCONFIGCPY
 780              	.LVL71:
 524:Generated_Source\PSoC5/cyfitter_cfg.c **** 	/* Switch Boost to the precision bandgap reference from its internal reference */
 525:Generated_Source\PSoC5/cyfitter_cfg.c **** 	CY_SET_REG8((void CYXDATA *)CYREG_BOOST_CR2, (CY_GET_REG8((void CYXDATA *)CYREG_BOOST_CR2) | 0x08u
 781              		.loc 1 525 0
 782 00ba 204A     		ldr	r2, .L51+84
 783 00bc 1378     		ldrb	r3, [r2]	@ zero_extendqisi2
 784 00be 43F00803 		orr	r3, r3, #8
 785 00c2 1370     		strb	r3, [r2]
 526:Generated_Source\PSoC5/cyfitter_cfg.c **** 
ARM GAS  C:\Users\ADMH2\AppData\Local\Temp\ccnv6mNa.s 			page 25


 527:Generated_Source\PSoC5/cyfitter_cfg.c **** 	/* Set Flash Cycles based on max possible frequency in case a glitch occurs during ClockSetup(). *
 528:Generated_Source\PSoC5/cyfitter_cfg.c **** 	CY_SET_XTND_REG8((void CYFAR *)(CYREG_CACHE_CC_CTL), (((CYDEV_INSTRUCT_CACHE_ENABLED) != 0) ? 0x61
 786              		.loc 1 528 0
 787 00c4 1E4D     		ldr	r5, .L51+88
 788 00c6 6123     		movs	r3, #97
 789 00c8 2B70     		strb	r3, [r5]
 529:Generated_Source\PSoC5/cyfitter_cfg.c **** 	/* Setup clocks based on selections from Clock DWR */
 530:Generated_Source\PSoC5/cyfitter_cfg.c **** 	ClockSetup();
 790              		.loc 1 530 0
 791 00ca FFF7FEFF 		bl	ClockSetup
 792              	.LVL72:
 531:Generated_Source\PSoC5/cyfitter_cfg.c **** 	/* Set Flash Cycles based on newly configured 24.00MHz Bus Clock. */
 532:Generated_Source\PSoC5/cyfitter_cfg.c **** 	CY_SET_XTND_REG8((void CYFAR *)(CYREG_CACHE_CC_CTL), (((CYDEV_INSTRUCT_CACHE_ENABLED) != 0) ? 0x81
 793              		.loc 1 532 0
 794 00ce 8123     		movs	r3, #129
 795 00d0 2B70     		strb	r3, [r5]
 533:Generated_Source\PSoC5/cyfitter_cfg.c **** 	CY_SET_XTND_REG8((void CYFAR *)(CYREG_PANTHER_WAITPIPE), 0x01u);
 796              		.loc 1 533 0
 797 00d2 0122     		movs	r2, #1
 798 00d4 1B4B     		ldr	r3, .L51+92
 799 00d6 1A70     		strb	r2, [r3]
 534:Generated_Source\PSoC5/cyfitter_cfg.c **** 
 535:Generated_Source\PSoC5/cyfitter_cfg.c **** 	/* Perform basic analog initialization to defaults */
 536:Generated_Source\PSoC5/cyfitter_cfg.c **** 	AnalogSetDefault();
 800              		.loc 1 536 0
 801 00d8 FFF7FEFF 		bl	AnalogSetDefault
 802              	.LVL73:
 537:Generated_Source\PSoC5/cyfitter_cfg.c **** 
 538:Generated_Source\PSoC5/cyfitter_cfg.c **** 	/* Configure alternate active mode */
 539:Generated_Source\PSoC5/cyfitter_cfg.c **** 	CYCONFIGCPY((void CYFAR *)CYDEV_PM_STBY_BASE, (const void CYFAR *)CYDEV_PM_ACT_BASE, 14u);
 803              		.loc 1 539 0
 804 00dc 0E22     		movs	r2, #14
 805 00de 2146     		mov	r1, r4
 806 00e0 1948     		ldr	r0, .L51+96
 807 00e2 FFF7FEFF 		bl	CYCONFIGCPY
 808              	.LVL74:
 809 00e6 38BD     		pop	{r3, r4, r5, pc}
 810              	.L52:
 811              		.align	2
 812              	.L51:
 813 00e8 E8460040 		.word	1073759976
 814 00ec 00000000 		.word	.LANCHOR0
 815 00f0 74000048 		.word	1207959668
 816 00f4 00760040 		.word	1073772032
 817 00f8 08760040 		.word	1073772040
 818 00fc FC040048 		.word	1207960828
 819 0100 10760040 		.word	1073772048
 820 0104 03500140 		.word	1073827843
 821 0108 A0430040 		.word	1073759136
 822 010c C4040048 		.word	1207960772
 823 0110 02510040 		.word	1073762562
 824 0114 CC040048 		.word	1207960780
 825 0118 C2510040 		.word	1073762754
 826 011c D4040048 		.word	1207960788
 827 0120 F2510040 		.word	1073762802
 828 0124 DC040048 		.word	1207960796
 829 0128 12510040 		.word	1073762578
ARM GAS  C:\Users\ADMH2\AppData\Local\Temp\ccnv6mNa.s 			page 26


 830 012c E4040048 		.word	1207960804
 831 0130 22510040 		.word	1073762594
 832 0134 EC040048 		.word	1207960812
 833 0138 30510040 		.word	1073762608
 834 013c 22430040 		.word	1073759010
 835 0140 00480040 		.word	1073760256
 836 0144 04000840 		.word	1074266116
 837 0148 B0430040 		.word	1073759152
 838              		.cfi_endproc
 839              	.LFE10:
 840              		.size	cyfitter_cfg, .-cyfitter_cfg
 841              		.global	AMux_1__maskTable
 842              		.global	AMux_1__addrTable
 843              		.section	.rodata
 844              		.align	2
 845              		.set	.LANCHOR0,. + 0
 846              		.type	AMux_1__addrTable, %object
 847              		.size	AMux_1__addrTable, 16
 848              	AMux_1__addrTable:
 849 0000 1D510040 		.word	1073762589
 850 0004 285B0040 		.word	1073765160
 851 0008 1D510040 		.word	1073762589
 852 000c 285B0040 		.word	1073765160
 853              		.type	AMux_1__maskTable, %object
 854              		.size	AMux_1__maskTable, 4
 855              	AMux_1__maskTable:
 856 0010 40       		.byte	64
 857 0011 04       		.byte	4
 858 0012 20       		.byte	32
 859 0013 02       		.byte	2
 860              		.type	cfg_memset_list.5033, %object
 861              		.size	cfg_memset_list.5033, 42
 862              	cfg_memset_list.5033:
 863 0014 004F0040 		.word	1073762048
 864 0018 0C00     		.short	12
 865 001a 40510040 		.4byte	1073762624
 866 001e 3000     		.short	48
 867 0020 00000140 		.word	1073807360
 868 0024 0010     		.short	4096
 869 0026 00140140 		.4byte	1073812480
 870 002a 0008     		.short	2048
 871 002c 00400140 		.word	1073823744
 872 0030 000A     		.short	2560
 873 0032 004C0140 		.4byte	1073826816
 874 0036 0002     		.short	512
 875 0038 00500140 		.word	1073827840
 876 003c 2000     		.short	32
 877              		.text
 878              	.Letext0:
 879              		.file 2 "c:\\program files (x86)\\cypress\\psoc creator\\4.4\\psoc creator\\import\\gnu\\arm\\5.4.
 880              		.file 3 "Generated_Source\\PSoC5\\cytypes.h"
 881              		.file 4 "Generated_Source\\PSoC5\\CyLib.h"