ARM GAS  C:\Users\ADMH2\AppData\Local\Temp\ccVFDBrt.s 			page 1


   1              		.syntax unified
   2              		.cpu cortex-m3
   3              		.fpu softvfp
   4              		.eabi_attribute 20, 1
   5              		.eabi_attribute 21, 1
   6              		.eabi_attribute 23, 3
   7              		.eabi_attribute 24, 1
   8              		.eabi_attribute 25, 1
   9              		.eabi_attribute 26, 1
  10              		.eabi_attribute 30, 1
  11              		.eabi_attribute 34, 1
  12              		.eabi_attribute 18, 4
  13              		.thumb
  14              		.syntax unified
  15              		.file	"main.c"
  16              		.text
  17              	.Ltext0:
  18              		.cfi_sections	.debug_frame
  19              		.section	.text.keyboard,"ax",%progbits
  20              		.align	2
  21              		.global	keyboard
  22              		.thumb
  23              		.thumb_func
  24              		.type	keyboard, %function
  25              	keyboard:
  26              	.LFB64:
  27              		.file 1 "main.c"
   1:main.c        **** /* ========================================
   2:main.c        ****  *
   3:main.c        ****  * Copyright YOUR COMPANY, THE YEAR
   4:main.c        ****  * All Rights Reserved
   5:main.c        ****  * UNPUBLISHED, LICENSED SOFTWARE.
   6:main.c        ****  *
   7:main.c        ****  * CONFIDENTIAL AND PROPRIETARY INFORMATION
   8:main.c        ****  * WHICH IS THE PROPERTY OF your company.
   9:main.c        ****  *
  10:main.c        ****  * ========================================
  11:main.c        **** */
  12:main.c        **** #include "project.h"
  13:main.c        **** uint16 valpot = 0;
  14:main.c        **** uint8 tipounidad = 0;
  15:main.c        **** uint32 angulo = 0;
  16:main.c        **** uint8 tecla;
  17:main.c        **** uint8 countpot = 0;
  18:main.c        **** uint8 potband = 0;
  19:main.c        **** uint8 tecladoband = 0;
  20:main.c        **** uint8 pos = 0;
  21:main.c        **** uint8 ms1 = 0;
  22:main.c        **** uint8 ms2=0;
  23:main.c        **** uint8 add = 0;
  24:main.c        **** uint8 correcto = 0;
  25:main.c        **** uint8 ohno = 0;
  26:main.c        **** uint8 ESCORRECTO = 0;
  27:main.c        **** uint8 salida = 0;
  28:main.c        **** uint32 counterOut = 0;
  29:main.c        **** uint8 comparado = 0;
  30:main.c        **** uint8 ciclo_acabado;
ARM GAS  C:\Users\ADMH2\AppData\Local\Temp\ccVFDBrt.s 			page 2


  31:main.c        **** uint16 senal_hume=0;
  32:main.c        **** uint16 senal_temp=0;
  33:main.c        **** uint32 milivolt_h=0;
  34:main.c        **** uint32 milivolt_temp=0;
  35:main.c        **** uint8 finishpass = 0;
  36:main.c        **** uint8 puerta_cerrada=0;
  37:main.c        **** uint8 ClaveIngresada[4];
  38:main.c        **** uint8 ClaveOriginal[4]={1,2,2,3};
  39:main.c        **** uint8 CompararClave(const uint8 *Ingresada, const uint8 *Original);
  40:main.c        **** uint16 temp;
  41:main.c        **** uint16 humedad;
  42:main.c        **** uint8 ingresando_valores=0;
  43:main.c        **** uint8 temperatura_anadida=0;
  44:main.c        **** uint8 humedad_anadida=0;
  45:main.c        **** uint8 tiempo_anadido=0;
  46:main.c        **** uint32 temp_in=2;
  47:main.c        **** uint32 humedad_in=0;
  48:main.c        **** uint32 tiempo_in=2;
  49:main.c        **** uint8 valores_confirmados=1;
  50:main.c        **** uint16 min_crono;
  51:main.c        **** uint16 segundos_crono;
  52:main.c        **** uint16 miliseg_crono;
  53:main.c        **** uint8 iniciar_conteo;
  54:main.c        **** uint8 mostrar_EnCilolcd;
  55:main.c        **** uint8 sacar_adc;
  56:main.c        **** uint16 limite_temp=120;
  57:main.c        **** uint16 limite_hum=80;
  58:main.c        **** uint8 alarma_temPeligro=0;
  59:main.c        **** uint8 alarma_humPeligro=0;
  60:main.c        **** uint8 alarma_ambasPeligro=0;
  61:main.c        **** uint8 alarma_yapasotiempo=0;
  62:main.c        **** uint8 encender_alarma_ambas;
  63:main.c        **** uint16 contador_muestras=0;
  64:main.c        **** uint8 bot1;
  65:main.c        **** uint16 SEGUNDOS=0;
  66:main.c        **** uint16 humedad_medida;
  67:main.c        **** uint16 temperatura_medida;
  68:main.c        **** RTC_TIME_DATE Start;
  69:main.c        **** uint8 apagador_alarma=0;
  70:main.c        **** int main(void)
  71:main.c        **** {
  72:main.c        ****     CyGlobalIntEnable; // Se inicializan los modulos necesarios
  73:main.c        ****     
  74:main.c        **** //    Start.Sec = 55;
  75:main.c        **** //    Start.Min = 45;
  76:main.c        **** //    Start.Hour = 23;
  77:main.c        **** //    Start.DayOfMonth = 24;
  78:main.c        **** //    Start.Year = 2015;
  79:main.c        **** //    RTC_WriteTime(&Start);
  80:main.c        **** //    
  81:main.c        **** //    RTC_Start();
  82:main.c        **** //    SEGUNDOS = RTC_ReadSecond();
  83:main.c        ****     
  84:main.c        ****     LCD_Start();
  85:main.c        ****     Teclado_Start();
  86:main.c        ****     PWM_Start();
  87:main.c        ****     ADC_Start();
ARM GAS  C:\Users\ADMH2\AppData\Local\Temp\ccVFDBrt.s 			page 3


  88:main.c        ****     Contaor_Start();
  89:main.c        ****     AMux_1_Start();
  90:main.c        ****     LED_Driver_1_Start();
  91:main.c        ****     //LED_Driver_1_Write7SegNumberDec(0,0,4,LED_Driver_1_ZERO_PAD);
  92:main.c        ****     LCD_LoadCustomFonts(LCD_customFonts); // Se cargan los custom fonts para el simbolo de grado °
  93:main.c        ****     
  94:main.c        ****     // Se inicializan interrupsiones ISR
  95:main.c        ****     CY_ISR_PROTO(counter_ms);
  96:main.c        ****     CY_ISR_PROTO(keyboard);
  97:main.c        ****     CY_ISR_PROTO(exiit);
  98:main.c        ****     
  99:main.c        ****     // Mensaje Inicial
 100:main.c        ****     
 101:main.c        ****     LCD_Position(0,3);
 102:main.c        ****     LCD_PrintString("INCUBADORA LISTA");
 103:main.c        ****     LCD_Position(2,3);
 104:main.c        ****     LCD_PrintString("C - CERRAR PUERTA");
 105:main.c        ****     LCD_Position(3,3);
 106:main.c        ****     LCD_PrintString("B - CONFIGURAR");
 107:main.c        ****     
 108:main.c        ****     for(;;){
 109:main.c        **** //        if (SEGUNDOS!=RTC_ReadSecond()){
 110:main.c        **** //            LCD_Position(1,6);
 111:main.c        **** //            LCD_PrintNumber(RTC_ReadHour());
 112:main.c        **** //            LCD_PutChar(':');
 113:main.c        **** //            LCD_PrintNumber(RTC_ReadMinute());
 114:main.c        **** //            LCD_PutChar(':');
 115:main.c        **** //            LCD_PrintNumber(RTC_ReadSecond());
 116:main.c        **** //        }
 117:main.c        ****         ISR_Key_StartEx(keyboard);
 118:main.c        ****         UanMS_StartEx(counter_ms);
 119:main.c        ****         logoutisr_StartEx(exiit);
 120:main.c        ****         if (add == 1 && valores_confirmados==0){ // En caso de darle a alguna tecla en el menu de i
 121:main.c        ****             tecla = Teclado_AsignarTecla();
 122:main.c        ****             if (tecla=='C' && puerta_cerrada==0){ // SI SE PRESIONA PARA CERRAR
 123:main.c        ****                 PWM_WriteCompare((180*100)/9+400); 
 124:main.c        ****                 LCD_ClearDisplay();
 125:main.c        ****                 LCD_Position(2,3);
 126:main.c        ****                 LCD_PrintString("Puerta cerrada");
 127:main.c        ****                 CyDelay(1500);
 128:main.c        ****                 LCD_ClearDisplay();
 129:main.c        ****                 LCD_Position(0,2);
 130:main.c        ****                 LCD_PrintString("INCUBADORA LISTA");
 131:main.c        ****                 LCD_Position(2,3);
 132:main.c        ****                 LCD_PrintString("A - ABRIR PUERTA");
 133:main.c        ****                 LCD_Position(3,3);
 134:main.c        ****                 LCD_PrintString("B - CONFIGURAR");
 135:main.c        ****                 puerta_cerrada=1;
 136:main.c        ****                 bot1=0;
 137:main.c        ****             }
 138:main.c        ****             else if (tecla=='A' && puerta_cerrada==1){
 139:main.c        ****                 PWM_WriteCompare(1*100/9+400); 
 140:main.c        ****                 LCD_ClearDisplay();
 141:main.c        ****                 LCD_Position(2,3);
 142:main.c        ****                 LCD_PrintString("Puerta abierta");
 143:main.c        ****                 CyDelay(1500);
 144:main.c        ****                 LCD_ClearDisplay();
ARM GAS  C:\Users\ADMH2\AppData\Local\Temp\ccVFDBrt.s 			page 4


 145:main.c        ****                 LCD_Position(0,3);
 146:main.c        ****                 LCD_PrintString("INCUBADORA LISTA");
 147:main.c        ****                 LCD_Position(2,3);
 148:main.c        ****                 LCD_PrintString("C - CERRAR");
 149:main.c        ****                 LCD_Position(3,3);
 150:main.c        ****                 LCD_PrintString("B - CONFIGURAR");
 151:main.c        ****                 puerta_cerrada=0;
 152:main.c        ****                 
 153:main.c        ****             }
 154:main.c        ****             else if (tecla == 'B' && puerta_cerrada==1){
 155:main.c        ****                 LCD_ClearDisplay();
 156:main.c        ****                 LCD_Position(0,0);
 157:main.c        ****                 LCD_PrintString("Ingrese los valores:");
 158:main.c        ****                 LCD_Position(1,0);
 159:main.c        ****                 LCD_PrintString("TEMP: ");
 160:main.c        ****                 LCD_Position(2,0);
 161:main.c        ****                 LCD_PrintString("HUME: ");
 162:main.c        ****                 LCD_Position(3,0);
 163:main.c        ****                 LCD_PrintString("Time: ");
 164:main.c        ****                 CyDelay(2000);
 165:main.c        ****                 ingresando_valores=1;
 166:main.c        ****                 puerta_cerrada=0;
 167:main.c        ****                 
 168:main.c        ****             }
 169:main.c        ****             if (ingresando_valores==1){
 170:main.c        ****                   
 171:main.c        ****                 if (tecla >= 0 && tecla < 10 && temperatura_anadida==0){
 172:main.c        ****                     temp_in=temp_in*10+tecla;
 173:main.c        ****                     LCD_Position(1,6);
 174:main.c        ****                     LCD_PrintNumber(temp_in);
 175:main.c        ****                     LCD_PutChar(LCD_CUSTOM_0); // Simbolo °
 176:main.c        ****                     if (tecla=='#' && temp_in>0 && temp_in<=180){
 177:main.c        ****                         temperatura_anadida=1;
 178:main.c        ****                         led_Write(!led_Read());
 179:main.c        ****                         //tecla=0;
 180:main.c        ****                         //add=0;
 181:main.c        ****                     }
 182:main.c        ****                     else if (tecla=='#'){
 183:main.c        ****                         temp_in=0;
 184:main.c        ****                     }
 185:main.c        ****                 }
 186:main.c        ****                  else if (tecla >= 0 && tecla < 10 && humedad_anadida==0){
 187:main.c        ****                     humedad_in=humedad_in*10+tecla;
 188:main.c        ****                     LCD_Position(2,6);
 189:main.c        ****                     LCD_PrintNumber(humedad_in);
 190:main.c        ****                     LCD_PutChar('%'); // Simbolo %
 191:main.c        ****                     if (tecla=='#' && humedad_in>0 && humedad_in<=180){
 192:main.c        ****                         humedad_anadida=1;
 193:main.c        ****                     }
 194:main.c        ****                     else if (tecla=='#'){
 195:main.c        ****                         humedad_in=0;
 196:main.c        ****                     }
 197:main.c        ****                 }
 198:main.c        ****                 else if (tecla >= 0 && tecla < 10 && tiempo_anadido==0){
 199:main.c        ****                     tiempo_in=tiempo_in*10+tecla;
 200:main.c        ****                     LCD_Position(3,6);
 201:main.c        ****                     LCD_PrintNumber(tiempo_in);
ARM GAS  C:\Users\ADMH2\AppData\Local\Temp\ccVFDBrt.s 			page 5


 202:main.c        ****                     LCD_PutChar('m');
 203:main.c        ****                     if (tecla=='#' && tiempo_in>0 && tiempo_in<=60){
 204:main.c        ****                         tiempo_anadido=1;
 205:main.c        ****                     }
 206:main.c        ****                     else if (tecla=='#'){
 207:main.c        ****                         tiempo_in=0;
 208:main.c        ****                     }
 209:main.c        ****                 }
 210:main.c        ****                 else if (tecla=='D' && temperatura_anadida==1 && humedad_anadida==1 && tiempo_anadi
 211:main.c        ****                     valores_confirmados=1;
 212:main.c        ****                     ingresando_valores=0;
 213:main.c        ****                 }
 214:main.c        ****             }
 215:main.c        ****             add=0;
 216:main.c        ****         }
 217:main.c        ****         if (valores_confirmados==1){
 218:main.c        ****             //INICIA CONTENO Y 
 219:main.c        ****             iniciar_conteo=1;
 220:main.c        ****             mostrar_EnCilolcd=1;
 221:main.c        ****             sacar_adc=1;
 222:main.c        ****             valores_confirmados=0;
 223:main.c        ****         }
 224:main.c        ****         if (mostrar_EnCilolcd==1){
 225:main.c        ****             LCD_ClearDisplay();
 226:main.c        ****             LCD_Position(1,0);
 227:main.c        ****             LCD_PrintString("EN CICLO - NO ABRIR");
 228:main.c        ****             mostrar_EnCilolcd=0;
 229:main.c        ****         }
 230:main.c        ****         if (iniciar_conteo==1 && ms1==1){
 231:main.c        ****             
 232:main.c        ****             ms1=0;
 233:main.c        ****             miliseg_crono++;
 234:main.c        ****             if (miliseg_crono==1000){
 235:main.c        ****                 led_Write(!led_Read());
 236:main.c        ****                 miliseg_crono=0;
 237:main.c        ****                 
 238:main.c        ****                 segundos_crono++;
 239:main.c        ****                 if (segundos_crono==60){
 240:main.c        ****                     segundos_crono=0;
 241:main.c        ****                     min_crono++;
 242:main.c        ****                 }
 243:main.c        ****             }
 244:main.c        ****             LED_Driver_1_Write7SegDigitDec(min_crono/10,0);
 245:main.c        ****             LED_Driver_1_Write7SegDigitDec(min_crono%10,1);
 246:main.c        ****             LED_Driver_1_Write7SegDigitDec(segundos_crono/10,2);
 247:main.c        ****             LED_Driver_1_Write7SegDigitDec(segundos_crono%10,3);
 248:main.c        ****             // AQUI SE DEBE PONER EL CODIGO QUE PONGA LOS MINUTOS Y SEGUNDOS EN EL CONTADOR
 249:main.c        ****             //lUEGUITO LO HAGO YA QUE NISIQUIERA HAY JUMPERS PARA ESO
 250:main.c        ****             if (min_crono==tiempo_in){
 251:main.c        ****                 encender_alarma_ambas=1;
 252:main.c        ****                 iniciar_conteo=0;
 253:main.c        ****                 ciclo_acabado=0;
 254:main.c        ****             }
 255:main.c        ****             
 256:main.c        ****         }
 257:main.c        ****         if (ciclo_acabado==1){
 258:main.c        ****             LCD_CLEAR_DISPLAY;
ARM GAS  C:\Users\ADMH2\AppData\Local\Temp\ccVFDBrt.s 			page 6


 259:main.c        ****             LCD_Position(1,0);
 260:main.c        ****             LCD_PrintString("RETIRE LAS MUESTRAS");
 261:main.c        ****         }
 262:main.c        ****         if (sacar_adc==1){
 263:main.c        ****             if (ms2==1){// entra aqui cada ms
 264:main.c        ****                 ms2=0;
 265:main.c        ****                 contador_muestras++;
 266:main.c        ****                 if (contador_muestras%25 == 0){ // entra aqui cada 25 ms
 267:main.c        ****                     
 268:main.c        ****                     //MIDE LAS VARIABLES CON EL ADC
 269:main.c        ****                     AMux_1_Select(1);//HUMEDAD
 270:main.c        ****                     ADC_StartConvert();
 271:main.c        ****                     while(!ADC_IsEndConversion(ADC_RETURN_STATUS)){}
 272:main.c        ****                     senal_hume=ADC_GetResult16();
 273:main.c        ****                     senal_hume=ADC_CountsTo_mVolts(senal_hume);
 274:main.c        ****                     ADC_StopConvert();
 275:main.c        ****                     milivolt_h=(milivolt_h+senal_hume);
 276:main.c        ****                     
 277:main.c        ****                     AMux_1_Select(0);//TEMPERATURA
 278:main.c        ****                     ADC_StartConvert();
 279:main.c        ****                     while(!ADC_IsEndConversion(ADC_RETURN_STATUS)){}
 280:main.c        ****                     senal_temp=ADC_GetResult16();
 281:main.c        ****                     senal_temp=ADC_CountsTo_mVolts(senal_temp);
 282:main.c        ****                     ADC_StopConvert();
 283:main.c        ****                     milivolt_temp=milivolt_temp+senal_temp;
 284:main.c        ****                     
 285:main.c        ****                     if (contador_muestras==500){// ENTRA ACA CADA 20 MUESTRAS, ES DECIR CADA 500 ms
 286:main.c        ****                         contador_muestras=0; // se resetea la bandera
 287:main.c        ****                         milivolt_h=milivolt_h/20; // se saca el promedio de las 20 muetras del peso
 288:main.c        ****                         milivolt_temp=milivolt_temp/20;// se saca el promedio de las 20 muestras de
 289:main.c        ****                             
 290:main.c        ****                         humedad_medida=milivolt_h/50;
 291:main.c        ****                         temperatura_medida=milivolt_temp*0.036;
 292:main.c        ****                              
 293:main.c        ****                         LCD_Position(2,0);
 294:main.c        ****                         LCD_PrintString("humedad= ");
 295:main.c        ****                         LCD_PrintNumber(humedad_medida);
 296:main.c        ****                         LCD_PrintString("%  ");
 297:main.c        ****                         milivolt_h=0;
 298:main.c        ****                         
 299:main.c        ****                         LCD_Position(3,0);
 300:main.c        ****                         LCD_PrintString("Temp= ");
 301:main.c        ****                         LCD_PrintNumber(temperatura_medida);
 302:main.c        ****                         LCD_PutChar(LCD_CUSTOM_0);
 303:main.c        ****                         LCD_PrintString("F   ");
 304:main.c        ****                         milivolt_temp=0;
 305:main.c        ****                     }
 306:main.c        ****                 }
 307:main.c        ****             }
 308:main.c        ****             if (temperatura_medida>limite_temp && apagador_alarma==0){
 309:main.c        ****                 alarma_temPeligro=1;
 310:main.c        ****             }
 311:main.c        ****             else{
 312:main.c        ****                 alarma_temPeligro=0;
 313:main.c        ****             }
 314:main.c        ****             if (humedad_medida>limite_hum && apagador_alarma==0){
 315:main.c        ****                 alarma_humPeligro=1;
ARM GAS  C:\Users\ADMH2\AppData\Local\Temp\ccVFDBrt.s 			page 7


 316:main.c        ****             }
 317:main.c        ****             else{
 318:main.c        ****                 alarma_humPeligro=0;
 319:main.c        ****             }
 320:main.c        ****             if (humedad_medida>limite_hum && temperatura_medida>limite_temp && apagador_alarma==0){
 321:main.c        ****                 alarma_ambasPeligro=1;
 322:main.c        ****             }
 323:main.c        ****             
 324:main.c        ****         }
 325:main.c        ****         
 326:main.c        ****         
 327:main.c        ****        
 328:main.c        ****     }
 329:main.c        **** }
 330:main.c        **** 
 331:main.c        **** CY_ISR_PROTO(keyboard){
  28              		.loc 1 331 0
  29              		.cfi_startproc
  30              		@ args = 0, pretend = 0, frame = 0
  31              		@ frame_needed = 0, uses_anonymous_args = 0
  32              		@ link register save eliminated.
 332:main.c        ****     add = 1;
  33              		.loc 1 332 0
  34 0000 0122     		movs	r2, #1
  35 0002 014B     		ldr	r3, .L2
  36 0004 1A70     		strb	r2, [r3]
  37 0006 7047     		bx	lr
  38              	.L3:
  39              		.align	2
  40              	.L2:
  41 0008 00000000 		.word	.LANCHOR0
  42              		.cfi_endproc
  43              	.LFE64:
  44              		.size	keyboard, .-keyboard
  45              		.section	.text.counter_ms,"ax",%progbits
  46              		.align	2
  47              		.global	counter_ms
  48              		.thumb
  49              		.thumb_func
  50              		.type	counter_ms, %function
  51              	counter_ms:
  52              	.LFB65:
 333:main.c        ****     
 334:main.c        **** }
 335:main.c        **** 
 336:main.c        **** CY_ISR_PROTO(counter_ms){
  53              		.loc 1 336 0
  54              		.cfi_startproc
  55              		@ args = 0, pretend = 0, frame = 0
  56              		@ frame_needed = 0, uses_anonymous_args = 0
  57              		@ link register save eliminated.
 337:main.c        ****     ms1 = 1;
  58              		.loc 1 337 0
  59 0000 024B     		ldr	r3, .L5
  60 0002 0122     		movs	r2, #1
  61 0004 5A70     		strb	r2, [r3, #1]
 338:main.c        ****     ms2=1;
ARM GAS  C:\Users\ADMH2\AppData\Local\Temp\ccVFDBrt.s 			page 8


  62              		.loc 1 338 0
  63 0006 9A70     		strb	r2, [r3, #2]
  64 0008 7047     		bx	lr
  65              	.L6:
  66 000a 00BF     		.align	2
  67              	.L5:
  68 000c 00000000 		.word	.LANCHOR0
  69              		.cfi_endproc
  70              	.LFE65:
  71              		.size	counter_ms, .-counter_ms
  72              		.section	.text.exiit,"ax",%progbits
  73              		.align	2
  74              		.global	exiit
  75              		.thumb
  76              		.thumb_func
  77              		.type	exiit, %function
  78              	exiit:
  79              	.LFB66:
 339:main.c        ****     
 340:main.c        **** }
 341:main.c        **** 
 342:main.c        **** CY_ISR_PROTO(exiit){ 
  80              		.loc 1 342 0
  81              		.cfi_startproc
  82              		@ args = 0, pretend = 0, frame = 0
  83              		@ frame_needed = 0, uses_anonymous_args = 0
  84              		@ link register save eliminated.
 343:main.c        ****     bot1=1;
  85              		.loc 1 343 0
  86 0000 0122     		movs	r2, #1
  87 0002 014B     		ldr	r3, .L8
  88 0004 1A70     		strb	r2, [r3]
  89 0006 7047     		bx	lr
  90              	.L9:
  91              		.align	2
  92              	.L8:
  93 0008 00000000 		.word	bot1
  94              		.cfi_endproc
  95              	.LFE66:
  96              		.size	exiit, .-exiit
  97              		.global	__aeabi_ui2d
  98              		.global	__aeabi_dmul
  99              		.global	__aeabi_d2uiz
 100              		.section	.text.main,"ax",%progbits
 101              		.align	2
 102              		.global	main
 103              		.thumb
 104              		.thumb_func
 105              		.type	main, %function
 106              	main:
 107              	.LFB63:
  71:main.c        ****     CyGlobalIntEnable; // Se inicializan los modulos necesarios
 108              		.loc 1 71 0
 109              		.cfi_startproc
 110              		@ Volatile: function does not return.
 111              		@ args = 0, pretend = 0, frame = 0
 112              		@ frame_needed = 0, uses_anonymous_args = 0
ARM GAS  C:\Users\ADMH2\AppData\Local\Temp\ccVFDBrt.s 			page 9


 113 0000 80B5     		push	{r7, lr}
 114              		.cfi_def_cfa_offset 8
 115              		.cfi_offset 7, -8
 116              		.cfi_offset 14, -4
  72:main.c        ****     
 117              		.loc 1 72 0
 118              		.syntax unified
 119              	@ 72 "main.c" 1
 120 0002 62B6     		CPSIE   i
 121              	@ 0 "" 2
  84:main.c        ****     Teclado_Start();
 122              		.loc 1 84 0
 123              		.thumb
 124              		.syntax unified
 125 0004 FFF7FEFF 		bl	LCD_Start
 126              	.LVL0:
  85:main.c        ****     PWM_Start();
 127              		.loc 1 85 0
 128 0008 FFF7FEFF 		bl	Teclado_Start
 129              	.LVL1:
  86:main.c        ****     ADC_Start();
 130              		.loc 1 86 0
 131 000c FFF7FEFF 		bl	PWM_Start
 132              	.LVL2:
  87:main.c        ****     Contaor_Start();
 133              		.loc 1 87 0
 134 0010 FFF7FEFF 		bl	ADC_Start
 135              	.LVL3:
  88:main.c        ****     AMux_1_Start();
 136              		.loc 1 88 0
 137 0014 FFF7FEFF 		bl	Contaor_Start
 138              	.LVL4:
  89:main.c        ****     LED_Driver_1_Start();
 139              		.loc 1 89 0
 140 0018 FFF7FEFF 		bl	AMux_1_Start
 141              	.LVL5:
  90:main.c        ****     //LED_Driver_1_Write7SegNumberDec(0,0,4,LED_Driver_1_ZERO_PAD);
 142              		.loc 1 90 0
 143 001c FFF7FEFF 		bl	LED_Driver_1_Start
 144              	.LVL6:
  92:main.c        ****     
 145              		.loc 1 92 0
 146 0020 A748     		ldr	r0, .L38
 147 0022 FFF7FEFF 		bl	LCD_LoadCustomFonts
 148              	.LVL7:
 101:main.c        ****     LCD_PrintString("INCUBADORA LISTA");
 149              		.loc 1 101 0
 150 0026 0321     		movs	r1, #3
 151 0028 0020     		movs	r0, #0
 152 002a FFF7FEFF 		bl	LCD_Position
 153              	.LVL8:
 102:main.c        ****     LCD_Position(2,3);
 154              		.loc 1 102 0
 155 002e A548     		ldr	r0, .L38+4
 156 0030 FFF7FEFF 		bl	LCD_PrintString
 157              	.LVL9:
 103:main.c        ****     LCD_PrintString("C - CERRAR PUERTA");
ARM GAS  C:\Users\ADMH2\AppData\Local\Temp\ccVFDBrt.s 			page 10


 158              		.loc 1 103 0
 159 0034 0321     		movs	r1, #3
 160 0036 0220     		movs	r0, #2
 161 0038 FFF7FEFF 		bl	LCD_Position
 162              	.LVL10:
 104:main.c        ****     LCD_Position(3,3);
 163              		.loc 1 104 0
 164 003c A248     		ldr	r0, .L38+8
 165 003e FFF7FEFF 		bl	LCD_PrintString
 166              	.LVL11:
 105:main.c        ****     LCD_PrintString("B - CONFIGURAR");
 167              		.loc 1 105 0
 168 0042 0321     		movs	r1, #3
 169 0044 0846     		mov	r0, r1
 170 0046 FFF7FEFF 		bl	LCD_Position
 171              	.LVL12:
 106:main.c        ****     
 172              		.loc 1 106 0
 173 004a A048     		ldr	r0, .L38+12
 174 004c FFF7FEFF 		bl	LCD_PrintString
 175              	.LVL13:
 176              	.L28:
 117:main.c        ****         UanMS_StartEx(counter_ms);
 177              		.loc 1 117 0
 178 0050 9F48     		ldr	r0, .L38+16
 179 0052 FFF7FEFF 		bl	ISR_Key_StartEx
 180              	.LVL14:
 118:main.c        ****         logoutisr_StartEx(exiit);
 181              		.loc 1 118 0
 182 0056 9F48     		ldr	r0, .L38+20
 183 0058 FFF7FEFF 		bl	UanMS_StartEx
 184              	.LVL15:
 119:main.c        ****         if (add == 1 && valores_confirmados==0){ // En caso de darle a alguna tecla en el menu de i
 185              		.loc 1 119 0
 186 005c 9E48     		ldr	r0, .L38+24
 187 005e FFF7FEFF 		bl	logoutisr_StartEx
 188              	.LVL16:
 120:main.c        ****             tecla = Teclado_AsignarTecla();
 189              		.loc 1 120 0
 190 0062 9E4B     		ldr	r3, .L38+28
 191 0064 1B78     		ldrb	r3, [r3]	@ zero_extendqisi2
 192 0066 012B     		cmp	r3, #1
 193 0068 40F06781 		bne	.L12
 120:main.c        ****             tecla = Teclado_AsignarTecla();
 194              		.loc 1 120 0 is_stmt 0 discriminator 1
 195 006c 9C4B     		ldr	r3, .L38+32
 196 006e 1B78     		ldrb	r3, [r3]	@ zero_extendqisi2
 197 0070 002B     		cmp	r3, #0
 198 0072 40F06281 		bne	.L12
 199              	.LBB2:
 121:main.c        ****             if (tecla=='C' && puerta_cerrada==0){ // SI SE PRESIONA PARA CERRAR
 200              		.loc 1 121 0 is_stmt 1
 201 0076 FFF7FEFF 		bl	Teclado_AsignarTecla
 202              	.LVL17:
 203 007a C0B2     		uxtb	r0, r0
 204 007c 994B     		ldr	r3, .L38+36
 205 007e 1870     		strb	r0, [r3]
ARM GAS  C:\Users\ADMH2\AppData\Local\Temp\ccVFDBrt.s 			page 11


 122:main.c        ****                 PWM_WriteCompare((180*100)/9+400); 
 206              		.loc 1 122 0
 207 0080 4328     		cmp	r0, #67
 208 0082 33D1     		bne	.L13
 122:main.c        ****                 PWM_WriteCompare((180*100)/9+400); 
 209              		.loc 1 122 0 is_stmt 0 discriminator 1
 210 0084 954B     		ldr	r3, .L38+28
 211 0086 DB78     		ldrb	r3, [r3, #3]	@ zero_extendqisi2
 212 0088 83BB     		cbnz	r3, .L13
 123:main.c        ****                 LCD_ClearDisplay();
 213              		.loc 1 123 0 is_stmt 1
 214 008a 4FF41660 		mov	r0, #2400
 215 008e FFF7FEFF 		bl	PWM_WriteCompare
 216              	.LVL18:
 124:main.c        ****                 LCD_Position(2,3);
 217              		.loc 1 124 0
 218 0092 0120     		movs	r0, #1
 219 0094 FFF7FEFF 		bl	LCD_WriteControl
 220              	.LVL19:
 125:main.c        ****                 LCD_PrintString("Puerta cerrada");
 221              		.loc 1 125 0
 222 0098 0321     		movs	r1, #3
 223 009a 0220     		movs	r0, #2
 224 009c FFF7FEFF 		bl	LCD_Position
 225              	.LVL20:
 126:main.c        ****                 CyDelay(1500);
 226              		.loc 1 126 0
 227 00a0 9148     		ldr	r0, .L38+40
 228 00a2 FFF7FEFF 		bl	LCD_PrintString
 229              	.LVL21:
 127:main.c        ****                 LCD_ClearDisplay();
 230              		.loc 1 127 0
 231 00a6 40F2DC50 		movw	r0, #1500
 232 00aa FFF7FEFF 		bl	CyDelay
 233              	.LVL22:
 128:main.c        ****                 LCD_Position(0,2);
 234              		.loc 1 128 0
 235 00ae 0120     		movs	r0, #1
 236 00b0 FFF7FEFF 		bl	LCD_WriteControl
 237              	.LVL23:
 129:main.c        ****                 LCD_PrintString("INCUBADORA LISTA");
 238              		.loc 1 129 0
 239 00b4 0221     		movs	r1, #2
 240 00b6 0020     		movs	r0, #0
 241 00b8 FFF7FEFF 		bl	LCD_Position
 242              	.LVL24:
 130:main.c        ****                 LCD_Position(2,3);
 243              		.loc 1 130 0
 244 00bc 8148     		ldr	r0, .L38+4
 245 00be FFF7FEFF 		bl	LCD_PrintString
 246              	.LVL25:
 131:main.c        ****                 LCD_PrintString("A - ABRIR PUERTA");
 247              		.loc 1 131 0
 248 00c2 0321     		movs	r1, #3
 249 00c4 0220     		movs	r0, #2
 250 00c6 FFF7FEFF 		bl	LCD_Position
 251              	.LVL26:
ARM GAS  C:\Users\ADMH2\AppData\Local\Temp\ccVFDBrt.s 			page 12


 132:main.c        ****                 LCD_Position(3,3);
 252              		.loc 1 132 0
 253 00ca 8848     		ldr	r0, .L38+44
 254 00cc FFF7FEFF 		bl	LCD_PrintString
 255              	.LVL27:
 133:main.c        ****                 LCD_PrintString("B - CONFIGURAR");
 256              		.loc 1 133 0
 257 00d0 0321     		movs	r1, #3
 258 00d2 0846     		mov	r0, r1
 259 00d4 FFF7FEFF 		bl	LCD_Position
 260              	.LVL28:
 134:main.c        ****                 puerta_cerrada=1;
 261              		.loc 1 134 0
 262 00d8 7C48     		ldr	r0, .L38+12
 263 00da FFF7FEFF 		bl	LCD_PrintString
 264              	.LVL29:
 135:main.c        ****                 bot1=0;
 265              		.loc 1 135 0
 266 00de 0122     		movs	r2, #1
 267 00e0 7E4B     		ldr	r3, .L38+28
 268 00e2 DA70     		strb	r2, [r3, #3]
 136:main.c        ****             }
 269              		.loc 1 136 0
 270 00e4 0022     		movs	r2, #0
 271 00e6 824B     		ldr	r3, .L38+48
 272 00e8 1A70     		strb	r2, [r3]
 273 00ea 61E0     		b	.L14
 274              	.L13:
 138:main.c        ****                 PWM_WriteCompare(1*100/9+400); 
 275              		.loc 1 138 0
 276 00ec 4128     		cmp	r0, #65
 277 00ee 31D1     		bne	.L15
 138:main.c        ****                 PWM_WriteCompare(1*100/9+400); 
 278              		.loc 1 138 0 is_stmt 0 discriminator 1
 279 00f0 7A4B     		ldr	r3, .L38+28
 280 00f2 DB78     		ldrb	r3, [r3, #3]	@ zero_extendqisi2
 281 00f4 012B     		cmp	r3, #1
 282 00f6 2DD1     		bne	.L15
 139:main.c        ****                 LCD_ClearDisplay();
 283              		.loc 1 139 0 is_stmt 1
 284 00f8 40F29B10 		movw	r0, #411
 285 00fc FFF7FEFF 		bl	PWM_WriteCompare
 286              	.LVL30:
 140:main.c        ****                 LCD_Position(2,3);
 287              		.loc 1 140 0
 288 0100 0120     		movs	r0, #1
 289 0102 FFF7FEFF 		bl	LCD_WriteControl
 290              	.LVL31:
 141:main.c        ****                 LCD_PrintString("Puerta abierta");
 291              		.loc 1 141 0
 292 0106 0321     		movs	r1, #3
 293 0108 0220     		movs	r0, #2
 294 010a FFF7FEFF 		bl	LCD_Position
 295              	.LVL32:
 142:main.c        ****                 CyDelay(1500);
 296              		.loc 1 142 0
 297 010e 7948     		ldr	r0, .L38+52
ARM GAS  C:\Users\ADMH2\AppData\Local\Temp\ccVFDBrt.s 			page 13


 298 0110 FFF7FEFF 		bl	LCD_PrintString
 299              	.LVL33:
 143:main.c        ****                 LCD_ClearDisplay();
 300              		.loc 1 143 0
 301 0114 40F2DC50 		movw	r0, #1500
 302 0118 FFF7FEFF 		bl	CyDelay
 303              	.LVL34:
 144:main.c        ****                 LCD_Position(0,3);
 304              		.loc 1 144 0
 305 011c 0120     		movs	r0, #1
 306 011e FFF7FEFF 		bl	LCD_WriteControl
 307              	.LVL35:
 145:main.c        ****                 LCD_PrintString("INCUBADORA LISTA");
 308              		.loc 1 145 0
 309 0122 0321     		movs	r1, #3
 310 0124 0020     		movs	r0, #0
 311 0126 FFF7FEFF 		bl	LCD_Position
 312              	.LVL36:
 146:main.c        ****                 LCD_Position(2,3);
 313              		.loc 1 146 0
 314 012a 6648     		ldr	r0, .L38+4
 315 012c FFF7FEFF 		bl	LCD_PrintString
 316              	.LVL37:
 147:main.c        ****                 LCD_PrintString("C - CERRAR");
 317              		.loc 1 147 0
 318 0130 0321     		movs	r1, #3
 319 0132 0220     		movs	r0, #2
 320 0134 FFF7FEFF 		bl	LCD_Position
 321              	.LVL38:
 148:main.c        ****                 LCD_Position(3,3);
 322              		.loc 1 148 0
 323 0138 6F48     		ldr	r0, .L38+56
 324 013a FFF7FEFF 		bl	LCD_PrintString
 325              	.LVL39:
 149:main.c        ****                 LCD_PrintString("B - CONFIGURAR");
 326              		.loc 1 149 0
 327 013e 0321     		movs	r1, #3
 328 0140 0846     		mov	r0, r1
 329 0142 FFF7FEFF 		bl	LCD_Position
 330              	.LVL40:
 150:main.c        ****                 puerta_cerrada=0;
 331              		.loc 1 150 0
 332 0146 6148     		ldr	r0, .L38+12
 333 0148 FFF7FEFF 		bl	LCD_PrintString
 334              	.LVL41:
 151:main.c        ****                 
 335              		.loc 1 151 0
 336 014c 0022     		movs	r2, #0
 337 014e 634B     		ldr	r3, .L38+28
 338 0150 DA70     		strb	r2, [r3, #3]
 339 0152 2DE0     		b	.L14
 340              	.L15:
 154:main.c        ****                 LCD_ClearDisplay();
 341              		.loc 1 154 0
 342 0154 4228     		cmp	r0, #66
 343 0156 2BD1     		bne	.L14
 154:main.c        ****                 LCD_ClearDisplay();
ARM GAS  C:\Users\ADMH2\AppData\Local\Temp\ccVFDBrt.s 			page 14


 344              		.loc 1 154 0 is_stmt 0 discriminator 1
 345 0158 604B     		ldr	r3, .L38+28
 346 015a DB78     		ldrb	r3, [r3, #3]	@ zero_extendqisi2
 347 015c 012B     		cmp	r3, #1
 348 015e 27D1     		bne	.L14
 155:main.c        ****                 LCD_Position(0,0);
 349              		.loc 1 155 0 is_stmt 1
 350 0160 0120     		movs	r0, #1
 351 0162 FFF7FEFF 		bl	LCD_WriteControl
 352              	.LVL42:
 156:main.c        ****                 LCD_PrintString("Ingrese los valores:");
 353              		.loc 1 156 0
 354 0166 0021     		movs	r1, #0
 355 0168 0846     		mov	r0, r1
 356 016a FFF7FEFF 		bl	LCD_Position
 357              	.LVL43:
 157:main.c        ****                 LCD_Position(1,0);
 358              		.loc 1 157 0
 359 016e 6348     		ldr	r0, .L38+60
 360 0170 FFF7FEFF 		bl	LCD_PrintString
 361              	.LVL44:
 158:main.c        ****                 LCD_PrintString("TEMP: ");
 362              		.loc 1 158 0
 363 0174 0021     		movs	r1, #0
 364 0176 0120     		movs	r0, #1
 365 0178 FFF7FEFF 		bl	LCD_Position
 366              	.LVL45:
 159:main.c        ****                 LCD_Position(2,0);
 367              		.loc 1 159 0
 368 017c 6048     		ldr	r0, .L38+64
 369 017e FFF7FEFF 		bl	LCD_PrintString
 370              	.LVL46:
 160:main.c        ****                 LCD_PrintString("HUME: ");
 371              		.loc 1 160 0
 372 0182 0021     		movs	r1, #0
 373 0184 0220     		movs	r0, #2
 374 0186 FFF7FEFF 		bl	LCD_Position
 375              	.LVL47:
 161:main.c        ****                 LCD_Position(3,0);
 376              		.loc 1 161 0
 377 018a 5E48     		ldr	r0, .L38+68
 378 018c FFF7FEFF 		bl	LCD_PrintString
 379              	.LVL48:
 162:main.c        ****                 LCD_PrintString("Time: ");
 380              		.loc 1 162 0
 381 0190 0021     		movs	r1, #0
 382 0192 0320     		movs	r0, #3
 383 0194 FFF7FEFF 		bl	LCD_Position
 384              	.LVL49:
 163:main.c        ****                 CyDelay(2000);
 385              		.loc 1 163 0
 386 0198 5B48     		ldr	r0, .L38+72
 387 019a FFF7FEFF 		bl	LCD_PrintString
 388              	.LVL50:
 164:main.c        ****                 ingresando_valores=1;
 389              		.loc 1 164 0
 390 019e 4FF4FA60 		mov	r0, #2000
ARM GAS  C:\Users\ADMH2\AppData\Local\Temp\ccVFDBrt.s 			page 15


 391 01a2 FFF7FEFF 		bl	CyDelay
 392              	.LVL51:
 165:main.c        ****                 puerta_cerrada=0;
 393              		.loc 1 165 0
 394 01a6 4D4B     		ldr	r3, .L38+28
 395 01a8 0122     		movs	r2, #1
 396 01aa 1A71     		strb	r2, [r3, #4]
 166:main.c        ****                 
 397              		.loc 1 166 0
 398 01ac 0022     		movs	r2, #0
 399 01ae DA70     		strb	r2, [r3, #3]
 400              	.L14:
 169:main.c        ****                   
 401              		.loc 1 169 0
 402 01b0 4A4B     		ldr	r3, .L38+28
 403 01b2 1B79     		ldrb	r3, [r3, #4]	@ zero_extendqisi2
 404 01b4 012B     		cmp	r3, #1
 405 01b6 40F0BD80 		bne	.L16
 171:main.c        ****                     temp_in=temp_in*10+tecla;
 406              		.loc 1 171 0
 407 01ba 4A4B     		ldr	r3, .L38+36
 408 01bc 1B78     		ldrb	r3, [r3]	@ zero_extendqisi2
 409 01be 092B     		cmp	r3, #9
 410 01c0 2DD8     		bhi	.L17
 171:main.c        ****                     temp_in=temp_in*10+tecla;
 411              		.loc 1 171 0 is_stmt 0 discriminator 1
 412 01c2 464A     		ldr	r2, .L38+28
 413 01c4 5279     		ldrb	r2, [r2, #5]	@ zero_extendqisi2
 414 01c6 52BB     		cbnz	r2, .L17
 172:main.c        ****                     LCD_Position(1,6);
 415              		.loc 1 172 0 is_stmt 1
 416 01c8 454C     		ldr	r4, .L38+32
 417 01ca 6268     		ldr	r2, [r4, #4]
 418 01cc 02EB8202 		add	r2, r2, r2, lsl #2
 419 01d0 5100     		lsls	r1, r2, #1
 420 01d2 0B44     		add	r3, r3, r1
 421 01d4 6360     		str	r3, [r4, #4]
 173:main.c        ****                     LCD_PrintNumber(temp_in);
 422              		.loc 1 173 0
 423 01d6 0621     		movs	r1, #6
 424 01d8 0120     		movs	r0, #1
 425 01da FFF7FEFF 		bl	LCD_Position
 426              	.LVL52:
 174:main.c        ****                     LCD_PutChar(LCD_CUSTOM_0); // Simbolo °
 427              		.loc 1 174 0
 428 01de A088     		ldrh	r0, [r4, #4]
 429 01e0 FFF7FEFF 		bl	LCD_PrintU32Number
 430              	.LVL53:
 175:main.c        ****                     if (tecla=='#' && temp_in>0 && temp_in<=180){
 431              		.loc 1 175 0
 432 01e4 0020     		movs	r0, #0
 433 01e6 FFF7FEFF 		bl	LCD_PutChar
 434              	.LVL54:
 176:main.c        ****                         temperatura_anadida=1;
 435              		.loc 1 176 0
 436 01ea 3E4B     		ldr	r3, .L38+36
 437 01ec 1B78     		ldrb	r3, [r3]	@ zero_extendqisi2
ARM GAS  C:\Users\ADMH2\AppData\Local\Temp\ccVFDBrt.s 			page 16


 438 01ee 232B     		cmp	r3, #35
 439 01f0 0ED1     		bne	.L18
 176:main.c        ****                         temperatura_anadida=1;
 440              		.loc 1 176 0 is_stmt 0 discriminator 1
 441 01f2 6268     		ldr	r2, [r4, #4]
 442 01f4 62B1     		cbz	r2, .L18
 176:main.c        ****                         temperatura_anadida=1;
 443              		.loc 1 176 0 discriminator 2
 444 01f6 B42A     		cmp	r2, #180
 445 01f8 0AD8     		bhi	.L18
 177:main.c        ****                         led_Write(!led_Read());
 446              		.loc 1 177 0 is_stmt 1
 447 01fa 0122     		movs	r2, #1
 448 01fc 374B     		ldr	r3, .L38+28
 449 01fe 5A71     		strb	r2, [r3, #5]
 178:main.c        ****                         //tecla=0;
 450              		.loc 1 178 0
 451 0200 FFF7FEFF 		bl	led_Read
 452              	.LVL55:
 453 0204 B0FA80F0 		clz	r0, r0
 454 0208 4009     		lsrs	r0, r0, #5
 455 020a FFF7FEFF 		bl	led_Write
 456              	.LVL56:
 457 020e 91E0     		b	.L16
 458              	.L18:
 182:main.c        ****                         temp_in=0;
 459              		.loc 1 182 0
 460 0210 232B     		cmp	r3, #35
 461 0212 40F08F80 		bne	.L16
 183:main.c        ****                     }
 462              		.loc 1 183 0
 463 0216 0022     		movs	r2, #0
 464 0218 314B     		ldr	r3, .L38+32
 465 021a 5A60     		str	r2, [r3, #4]
 466 021c 8AE0     		b	.L16
 467              	.L17:
 186:main.c        ****                     humedad_in=humedad_in*10+tecla;
 468              		.loc 1 186 0
 469 021e 092B     		cmp	r3, #9
 470 0220 24D8     		bhi	.L19
 186:main.c        ****                     humedad_in=humedad_in*10+tecla;
 471              		.loc 1 186 0 is_stmt 0 discriminator 1
 472 0222 2E4A     		ldr	r2, .L38+28
 473 0224 9279     		ldrb	r2, [r2, #6]	@ zero_extendqisi2
 474 0226 0ABB     		cbnz	r2, .L19
 187:main.c        ****                     LCD_Position(2,6);
 475              		.loc 1 187 0 is_stmt 1
 476 0228 2C4C     		ldr	r4, .L38+28
 477 022a A268     		ldr	r2, [r4, #8]
 478 022c 02EB8202 		add	r2, r2, r2, lsl #2
 479 0230 5100     		lsls	r1, r2, #1
 480 0232 0B44     		add	r3, r3, r1
 481 0234 A360     		str	r3, [r4, #8]
 188:main.c        ****                     LCD_PrintNumber(humedad_in);
 482              		.loc 1 188 0
 483 0236 0621     		movs	r1, #6
 484 0238 0220     		movs	r0, #2
ARM GAS  C:\Users\ADMH2\AppData\Local\Temp\ccVFDBrt.s 			page 17


 485 023a FFF7FEFF 		bl	LCD_Position
 486              	.LVL57:
 189:main.c        ****                     LCD_PutChar('%'); // Simbolo %
 487              		.loc 1 189 0
 488 023e 2089     		ldrh	r0, [r4, #8]
 489 0240 FFF7FEFF 		bl	LCD_PrintU32Number
 490              	.LVL58:
 190:main.c        ****                     if (tecla=='#' && humedad_in>0 && humedad_in<=180){
 491              		.loc 1 190 0
 492 0244 2520     		movs	r0, #37
 493 0246 FFF7FEFF 		bl	LCD_PutChar
 494              	.LVL59:
 191:main.c        ****                         humedad_anadida=1;
 495              		.loc 1 191 0
 496 024a 264B     		ldr	r3, .L38+36
 497 024c 1B78     		ldrb	r3, [r3]	@ zero_extendqisi2
 498 024e 232B     		cmp	r3, #35
 499 0250 06D1     		bne	.L20
 191:main.c        ****                         humedad_anadida=1;
 500              		.loc 1 191 0 is_stmt 0 discriminator 1
 501 0252 A268     		ldr	r2, [r4, #8]
 502 0254 22B1     		cbz	r2, .L20
 191:main.c        ****                         humedad_anadida=1;
 503              		.loc 1 191 0 discriminator 2
 504 0256 B42A     		cmp	r2, #180
 505 0258 02D8     		bhi	.L20
 192:main.c        ****                     }
 506              		.loc 1 192 0 is_stmt 1
 507 025a 0122     		movs	r2, #1
 508 025c A271     		strb	r2, [r4, #6]
 509 025e 69E0     		b	.L16
 510              	.L20:
 194:main.c        ****                         humedad_in=0;
 511              		.loc 1 194 0
 512 0260 232B     		cmp	r3, #35
 513 0262 67D1     		bne	.L16
 195:main.c        ****                     }
 514              		.loc 1 195 0
 515 0264 0022     		movs	r2, #0
 516 0266 1D4B     		ldr	r3, .L38+28
 517 0268 9A60     		str	r2, [r3, #8]
 518 026a 63E0     		b	.L16
 519              	.L19:
 198:main.c        ****                     tiempo_in=tiempo_in*10+tecla;
 520              		.loc 1 198 0
 521 026c 092B     		cmp	r3, #9
 522 026e 4DD8     		bhi	.L21
 198:main.c        ****                     tiempo_in=tiempo_in*10+tecla;
 523              		.loc 1 198 0 is_stmt 0 discriminator 1
 524 0270 1A4A     		ldr	r2, .L38+28
 525 0272 127B     		ldrb	r2, [r2, #12]	@ zero_extendqisi2
 526 0274 002A     		cmp	r2, #0
 527 0276 49D1     		bne	.L21
 199:main.c        ****                     LCD_Position(3,6);
 528              		.loc 1 199 0 is_stmt 1
 529 0278 194C     		ldr	r4, .L38+32
 530 027a A268     		ldr	r2, [r4, #8]
ARM GAS  C:\Users\ADMH2\AppData\Local\Temp\ccVFDBrt.s 			page 18


 531 027c 02EB8202 		add	r2, r2, r2, lsl #2
 532 0280 5100     		lsls	r1, r2, #1
 533 0282 0B44     		add	r3, r3, r1
 534 0284 A360     		str	r3, [r4, #8]
 200:main.c        ****                     LCD_PrintNumber(tiempo_in);
 535              		.loc 1 200 0
 536 0286 0621     		movs	r1, #6
 537 0288 0320     		movs	r0, #3
 538 028a FFF7FEFF 		bl	LCD_Position
 539              	.LVL60:
 201:main.c        ****                     LCD_PutChar('m');
 540              		.loc 1 201 0
 541 028e 2089     		ldrh	r0, [r4, #8]
 542 0290 FFF7FEFF 		bl	LCD_PrintU32Number
 543              	.LVL61:
 202:main.c        ****                     if (tecla=='#' && tiempo_in>0 && tiempo_in<=60){
 544              		.loc 1 202 0
 545 0294 6D20     		movs	r0, #109
 546 0296 FFF7FEFF 		bl	LCD_PutChar
 547              	.LVL62:
 203:main.c        ****                         tiempo_anadido=1;
 548              		.loc 1 203 0
 549 029a 124B     		ldr	r3, .L38+36
 550 029c 1B78     		ldrb	r3, [r3]	@ zero_extendqisi2
 551 029e 232B     		cmp	r3, #35
 552 02a0 07D1     		bne	.L22
 203:main.c        ****                         tiempo_anadido=1;
 553              		.loc 1 203 0 is_stmt 0 discriminator 1
 554 02a2 A268     		ldr	r2, [r4, #8]
 555 02a4 2AB1     		cbz	r2, .L22
 203:main.c        ****                         tiempo_anadido=1;
 556              		.loc 1 203 0 discriminator 2
 557 02a6 3C2A     		cmp	r2, #60
 558 02a8 03D8     		bhi	.L22
 204:main.c        ****                     }
 559              		.loc 1 204 0 is_stmt 1
 560 02aa 0122     		movs	r2, #1
 561 02ac 0B4B     		ldr	r3, .L38+28
 562 02ae 1A73     		strb	r2, [r3, #12]
 563 02b0 40E0     		b	.L16
 564              	.L22:
 206:main.c        ****                         tiempo_in=0;
 565              		.loc 1 206 0
 566 02b2 232B     		cmp	r3, #35
 567 02b4 3ED1     		bne	.L16
 207:main.c        ****                     }
 568              		.loc 1 207 0
 569 02b6 0022     		movs	r2, #0
 570 02b8 094B     		ldr	r3, .L38+32
 571 02ba 9A60     		str	r2, [r3, #8]
 572 02bc 3AE0     		b	.L16
 573              	.L39:
 574 02be 00BF     		.align	2
 575              	.L38:
 576 02c0 00000000 		.word	LCD_customFonts
 577 02c4 00000000 		.word	.LC0
 578 02c8 14000000 		.word	.LC1
ARM GAS  C:\Users\ADMH2\AppData\Local\Temp\ccVFDBrt.s 			page 19


 579 02cc 28000000 		.word	.LC2
 580 02d0 00000000 		.word	keyboard
 581 02d4 00000000 		.word	counter_ms
 582 02d8 00000000 		.word	exiit
 583 02dc 00000000 		.word	.LANCHOR0
 584 02e0 00000000 		.word	.LANCHOR1
 585 02e4 00000000 		.word	tecla
 586 02e8 38000000 		.word	.LC3
 587 02ec 48000000 		.word	.LC4
 588 02f0 00000000 		.word	bot1
 589 02f4 5C000000 		.word	.LC5
 590 02f8 6C000000 		.word	.LC6
 591 02fc 78000000 		.word	.LC7
 592 0300 90000000 		.word	.LC8
 593 0304 98000000 		.word	.LC9
 594 0308 A0000000 		.word	.LC10
 595              	.L21:
 210:main.c        ****                     valores_confirmados=1;
 596              		.loc 1 210 0
 597 030c 442B     		cmp	r3, #68
 598 030e 11D1     		bne	.L16
 210:main.c        ****                     valores_confirmados=1;
 599              		.loc 1 210 0 is_stmt 0 discriminator 1
 600 0310 B34B     		ldr	r3, .L40+8
 601 0312 5B79     		ldrb	r3, [r3, #5]	@ zero_extendqisi2
 602 0314 012B     		cmp	r3, #1
 603 0316 0DD1     		bne	.L16
 210:main.c        ****                     valores_confirmados=1;
 604              		.loc 1 210 0 discriminator 2
 605 0318 B14B     		ldr	r3, .L40+8
 606 031a 9B79     		ldrb	r3, [r3, #6]	@ zero_extendqisi2
 607 031c 012B     		cmp	r3, #1
 608 031e 09D1     		bne	.L16
 210:main.c        ****                     valores_confirmados=1;
 609              		.loc 1 210 0 discriminator 3
 610 0320 AF4B     		ldr	r3, .L40+8
 611 0322 1B7B     		ldrb	r3, [r3, #12]	@ zero_extendqisi2
 612 0324 012B     		cmp	r3, #1
 613 0326 05D1     		bne	.L16
 211:main.c        ****                     ingresando_valores=0;
 614              		.loc 1 211 0 is_stmt 1
 615 0328 0122     		movs	r2, #1
 616 032a AE4B     		ldr	r3, .L40+12
 617 032c 1A70     		strb	r2, [r3]
 212:main.c        ****                 }
 618              		.loc 1 212 0
 619 032e 0022     		movs	r2, #0
 620 0330 AB4B     		ldr	r3, .L40+8
 621 0332 1A71     		strb	r2, [r3, #4]
 622              	.L16:
 215:main.c        ****         }
 623              		.loc 1 215 0
 624 0334 0022     		movs	r2, #0
 625 0336 AA4B     		ldr	r3, .L40+8
 626 0338 1A70     		strb	r2, [r3]
 627              	.L12:
 628              	.LBE2:
ARM GAS  C:\Users\ADMH2\AppData\Local\Temp\ccVFDBrt.s 			page 20


 217:main.c        ****             //INICIA CONTENO Y 
 629              		.loc 1 217 0
 630 033a AA4B     		ldr	r3, .L40+12
 631 033c 1B78     		ldrb	r3, [r3]	@ zero_extendqisi2
 632 033e 012B     		cmp	r3, #1
 633 0340 08D1     		bne	.L23
 219:main.c        ****             mostrar_EnCilolcd=1;
 634              		.loc 1 219 0
 635 0342 A94A     		ldr	r2, .L40+16
 636 0344 1370     		strb	r3, [r2]
 220:main.c        ****             sacar_adc=1;
 637              		.loc 1 220 0
 638 0346 A94A     		ldr	r2, .L40+20
 639 0348 1370     		strb	r3, [r2]
 221:main.c        ****             valores_confirmados=0;
 640              		.loc 1 221 0
 641 034a A94A     		ldr	r2, .L40+24
 642 034c 1370     		strb	r3, [r2]
 222:main.c        ****         }
 643              		.loc 1 222 0
 644 034e 0022     		movs	r2, #0
 645 0350 A44B     		ldr	r3, .L40+12
 646 0352 1A70     		strb	r2, [r3]
 647              	.L23:
 224:main.c        ****             LCD_ClearDisplay();
 648              		.loc 1 224 0
 649 0354 A54B     		ldr	r3, .L40+20
 650 0356 1B78     		ldrb	r3, [r3]	@ zero_extendqisi2
 651 0358 012B     		cmp	r3, #1
 652 035a 0CD1     		bne	.L24
 225:main.c        ****             LCD_Position(1,0);
 653              		.loc 1 225 0
 654 035c 0120     		movs	r0, #1
 655 035e FFF7FEFF 		bl	LCD_WriteControl
 656              	.LVL63:
 226:main.c        ****             LCD_PrintString("EN CICLO - NO ABRIR");
 657              		.loc 1 226 0
 658 0362 0021     		movs	r1, #0
 659 0364 0120     		movs	r0, #1
 660 0366 FFF7FEFF 		bl	LCD_Position
 661              	.LVL64:
 227:main.c        ****             mostrar_EnCilolcd=0;
 662              		.loc 1 227 0
 663 036a A248     		ldr	r0, .L40+28
 664 036c FFF7FEFF 		bl	LCD_PrintString
 665              	.LVL65:
 228:main.c        ****         }
 666              		.loc 1 228 0
 667 0370 0022     		movs	r2, #0
 668 0372 9E4B     		ldr	r3, .L40+20
 669 0374 1A70     		strb	r2, [r3]
 670              	.L24:
 230:main.c        ****             
 671              		.loc 1 230 0
 672 0376 9C4B     		ldr	r3, .L40+16
 673 0378 1B78     		ldrb	r3, [r3]	@ zero_extendqisi2
 674 037a 012B     		cmp	r3, #1
ARM GAS  C:\Users\ADMH2\AppData\Local\Temp\ccVFDBrt.s 			page 21


 675 037c 5ED1     		bne	.L25
 230:main.c        ****             
 676              		.loc 1 230 0 is_stmt 0 discriminator 1
 677 037e 984B     		ldr	r3, .L40+8
 678 0380 5B78     		ldrb	r3, [r3, #1]	@ zero_extendqisi2
 679 0382 012B     		cmp	r3, #1
 680 0384 5AD1     		bne	.L25
 232:main.c        ****             miliseg_crono++;
 681              		.loc 1 232 0 is_stmt 1
 682 0386 0022     		movs	r2, #0
 683 0388 954B     		ldr	r3, .L40+8
 684 038a 5A70     		strb	r2, [r3, #1]
 233:main.c        ****             if (miliseg_crono==1000){
 685              		.loc 1 233 0
 686 038c 9A4A     		ldr	r2, .L40+32
 687 038e 1388     		ldrh	r3, [r2]
 688 0390 0133     		adds	r3, r3, #1
 689 0392 9BB2     		uxth	r3, r3
 690 0394 1380     		strh	r3, [r2]	@ movhi
 234:main.c        ****                 led_Write(!led_Read());
 691              		.loc 1 234 0
 692 0396 B3F57A7F 		cmp	r3, #1000
 693 039a 17D1     		bne	.L26
 235:main.c        ****                 miliseg_crono=0;
 694              		.loc 1 235 0
 695 039c FFF7FEFF 		bl	led_Read
 696              	.LVL66:
 697 03a0 B0FA80F0 		clz	r0, r0
 698 03a4 4009     		lsrs	r0, r0, #5
 699 03a6 FFF7FEFF 		bl	led_Write
 700              	.LVL67:
 236:main.c        ****                 
 701              		.loc 1 236 0
 702 03aa 0022     		movs	r2, #0
 703 03ac 924B     		ldr	r3, .L40+32
 704 03ae 1A80     		strh	r2, [r3]	@ movhi
 238:main.c        ****                 if (segundos_crono==60){
 705              		.loc 1 238 0
 706 03b0 924A     		ldr	r2, .L40+36
 707 03b2 1388     		ldrh	r3, [r2]
 708 03b4 0133     		adds	r3, r3, #1
 709 03b6 9BB2     		uxth	r3, r3
 710 03b8 1380     		strh	r3, [r2]	@ movhi
 239:main.c        ****                     segundos_crono=0;
 711              		.loc 1 239 0
 712 03ba 3C2B     		cmp	r3, #60
 713 03bc 06D1     		bne	.L26
 240:main.c        ****                     min_crono++;
 714              		.loc 1 240 0
 715 03be 0022     		movs	r2, #0
 716 03c0 8E4B     		ldr	r3, .L40+36
 717 03c2 1A80     		strh	r2, [r3]	@ movhi
 241:main.c        ****                 }
 718              		.loc 1 241 0
 719 03c4 8E4A     		ldr	r2, .L40+40
 720 03c6 1388     		ldrh	r3, [r2]
 721 03c8 0133     		adds	r3, r3, #1
ARM GAS  C:\Users\ADMH2\AppData\Local\Temp\ccVFDBrt.s 			page 22


 722 03ca 1380     		strh	r3, [r2]	@ movhi
 723              	.L26:
 244:main.c        ****             LED_Driver_1_Write7SegDigitDec(min_crono%10,1);
 724              		.loc 1 244 0
 725 03cc 8C4D     		ldr	r5, .L40+40
 726 03ce 2888     		ldrh	r0, [r5]
 727 03d0 8C4C     		ldr	r4, .L40+44
 728 03d2 A4FB0030 		umull	r3, r0, r4, r0
 729 03d6 0021     		movs	r1, #0
 730 03d8 C0F3C700 		ubfx	r0, r0, #3, #8
 731 03dc FFF7FEFF 		bl	LED_Driver_1_Write7SegDigitDec
 732              	.LVL68:
 245:main.c        ****             LED_Driver_1_Write7SegDigitDec(segundos_crono/10,2);
 733              		.loc 1 245 0
 734 03e0 2A88     		ldrh	r2, [r5]
 735 03e2 A4FB0213 		umull	r1, r3, r4, r2
 736 03e6 DB08     		lsrs	r3, r3, #3
 737 03e8 03EB8303 		add	r3, r3, r3, lsl #2
 738 03ec 5800     		lsls	r0, r3, #1
 739 03ee 101A     		subs	r0, r2, r0
 740 03f0 0121     		movs	r1, #1
 741 03f2 C0B2     		uxtb	r0, r0
 742 03f4 FFF7FEFF 		bl	LED_Driver_1_Write7SegDigitDec
 743              	.LVL69:
 246:main.c        ****             LED_Driver_1_Write7SegDigitDec(segundos_crono%10,3);
 744              		.loc 1 246 0
 745 03f8 804E     		ldr	r6, .L40+36
 746 03fa 3088     		ldrh	r0, [r6]
 747 03fc A4FB0030 		umull	r3, r0, r4, r0
 748 0400 0221     		movs	r1, #2
 749 0402 C0F3C700 		ubfx	r0, r0, #3, #8
 750 0406 FFF7FEFF 		bl	LED_Driver_1_Write7SegDigitDec
 751              	.LVL70:
 247:main.c        ****             // AQUI SE DEBE PONER EL CODIGO QUE PONGA LOS MINUTOS Y SEGUNDOS EN EL CONTADOR
 752              		.loc 1 247 0
 753 040a 3388     		ldrh	r3, [r6]
 754 040c A4FB0324 		umull	r2, r4, r4, r3
 755 0410 E408     		lsrs	r4, r4, #3
 756 0412 04EB8404 		add	r4, r4, r4, lsl #2
 757 0416 6000     		lsls	r0, r4, #1
 758 0418 181A     		subs	r0, r3, r0
 759 041a 0321     		movs	r1, #3
 760 041c C0B2     		uxtb	r0, r0
 761 041e FFF7FEFF 		bl	LED_Driver_1_Write7SegDigitDec
 762              	.LVL71:
 250:main.c        ****                 encender_alarma_ambas=1;
 763              		.loc 1 250 0
 764 0422 2A88     		ldrh	r2, [r5]
 765 0424 6F4B     		ldr	r3, .L40+12
 766 0426 9B68     		ldr	r3, [r3, #8]
 767 0428 9A42     		cmp	r2, r3
 768 042a 07D1     		bne	.L25
 251:main.c        ****                 iniciar_conteo=0;
 769              		.loc 1 251 0
 770 042c 0122     		movs	r2, #1
 771 042e 764B     		ldr	r3, .L40+48
 772 0430 1A70     		strb	r2, [r3]
ARM GAS  C:\Users\ADMH2\AppData\Local\Temp\ccVFDBrt.s 			page 23


 252:main.c        ****                 ciclo_acabado=0;
 773              		.loc 1 252 0
 774 0432 0023     		movs	r3, #0
 775 0434 6C4A     		ldr	r2, .L40+16
 776 0436 1370     		strb	r3, [r2]
 253:main.c        ****             }
 777              		.loc 1 253 0
 778 0438 744A     		ldr	r2, .L40+52
 779 043a 1370     		strb	r3, [r2]
 780              	.L25:
 257:main.c        ****             LCD_CLEAR_DISPLAY;
 781              		.loc 1 257 0
 782 043c 734B     		ldr	r3, .L40+52
 783 043e 1B78     		ldrb	r3, [r3]	@ zero_extendqisi2
 784 0440 012B     		cmp	r3, #1
 785 0442 06D1     		bne	.L27
 259:main.c        ****             LCD_PrintString("RETIRE LAS MUESTRAS");
 786              		.loc 1 259 0
 787 0444 0021     		movs	r1, #0
 788 0446 0120     		movs	r0, #1
 789 0448 FFF7FEFF 		bl	LCD_Position
 790              	.LVL72:
 260:main.c        ****         }
 791              		.loc 1 260 0
 792 044c 7048     		ldr	r0, .L40+56
 793 044e FFF7FEFF 		bl	LCD_PrintString
 794              	.LVL73:
 795              	.L27:
 262:main.c        ****             if (ms2==1){// entra aqui cada ms
 796              		.loc 1 262 0
 797 0452 674B     		ldr	r3, .L40+24
 798 0454 1B78     		ldrb	r3, [r3]	@ zero_extendqisi2
 799 0456 012B     		cmp	r3, #1
 800 0458 7FF4FAAD 		bne	.L28
 263:main.c        ****                 ms2=0;
 801              		.loc 1 263 0
 802 045c 604B     		ldr	r3, .L40+8
 803 045e 9B78     		ldrb	r3, [r3, #2]	@ zero_extendqisi2
 804 0460 012B     		cmp	r3, #1
 805 0462 40F08180 		bne	.L29
 264:main.c        ****                 contador_muestras++;
 806              		.loc 1 264 0
 807 0466 5E4A     		ldr	r2, .L40+8
 808 0468 0023     		movs	r3, #0
 809 046a 9370     		strb	r3, [r2, #2]
 265:main.c        ****                 if (contador_muestras%25 == 0){ // entra aqui cada 25 ms
 810              		.loc 1 265 0
 811 046c D389     		ldrh	r3, [r2, #14]
 812 046e 0133     		adds	r3, r3, #1
 813 0470 9BB2     		uxth	r3, r3
 814 0472 D381     		strh	r3, [r2, #14]	@ movhi
 266:main.c        ****                     
 815              		.loc 1 266 0
 816 0474 674A     		ldr	r2, .L40+60
 817 0476 A2FB0312 		umull	r1, r2, r2, r3
 818 047a D208     		lsrs	r2, r2, #3
 819 047c 02EB8202 		add	r2, r2, r2, lsl #2
ARM GAS  C:\Users\ADMH2\AppData\Local\Temp\ccVFDBrt.s 			page 24


 820 0480 02EB8202 		add	r2, r2, r2, lsl #2
 821 0484 9B1A     		subs	r3, r3, r2
 822 0486 9BB2     		uxth	r3, r3
 823 0488 002B     		cmp	r3, #0
 824 048a 6DD1     		bne	.L29
 269:main.c        ****                     ADC_StartConvert();
 825              		.loc 1 269 0
 826 048c 0120     		movs	r0, #1
 827 048e FFF7FEFF 		bl	AMux_1_Select
 828              	.LVL74:
 270:main.c        ****                     while(!ADC_IsEndConversion(ADC_RETURN_STATUS)){}
 829              		.loc 1 270 0
 830 0492 FFF7FEFF 		bl	ADC_StartConvert
 831              	.LVL75:
 832              	.L30:
 271:main.c        ****                     senal_hume=ADC_GetResult16();
 833              		.loc 1 271 0 discriminator 1
 834 0496 0120     		movs	r0, #1
 835 0498 FFF7FEFF 		bl	ADC_IsEndConversion
 836              	.LVL76:
 837 049c 0028     		cmp	r0, #0
 838 049e FAD0     		beq	.L30
 272:main.c        ****                     senal_hume=ADC_CountsTo_mVolts(senal_hume);
 839              		.loc 1 272 0
 840 04a0 FFF7FEFF 		bl	ADC_GetResult16
 841              	.LVL77:
 842 04a4 4E4C     		ldr	r4, .L40+8
 843 04a6 2082     		strh	r0, [r4, #16]	@ movhi
 273:main.c        ****                     ADC_StopConvert();
 844              		.loc 1 273 0
 845 04a8 FFF7FEFF 		bl	ADC_CountsTo_mVolts
 846              	.LVL78:
 847 04ac 2082     		strh	r0, [r4, #16]	@ movhi
 274:main.c        ****                     milivolt_h=(milivolt_h+senal_hume);
 848              		.loc 1 274 0
 849 04ae FFF7FEFF 		bl	ADC_StopConvert
 850              	.LVL79:
 275:main.c        ****                     
 851              		.loc 1 275 0
 852 04b2 228A     		ldrh	r2, [r4, #16]
 853 04b4 6369     		ldr	r3, [r4, #20]
 854 04b6 1344     		add	r3, r3, r2
 855 04b8 6361     		str	r3, [r4, #20]
 277:main.c        ****                     ADC_StartConvert();
 856              		.loc 1 277 0
 857 04ba 0020     		movs	r0, #0
 858 04bc FFF7FEFF 		bl	AMux_1_Select
 859              	.LVL80:
 278:main.c        ****                     while(!ADC_IsEndConversion(ADC_RETURN_STATUS)){}
 860              		.loc 1 278 0
 861 04c0 FFF7FEFF 		bl	ADC_StartConvert
 862              	.LVL81:
 863              	.L31:
 279:main.c        ****                     senal_temp=ADC_GetResult16();
 864              		.loc 1 279 0 discriminator 1
 865 04c4 0120     		movs	r0, #1
 866 04c6 FFF7FEFF 		bl	ADC_IsEndConversion
ARM GAS  C:\Users\ADMH2\AppData\Local\Temp\ccVFDBrt.s 			page 25


 867              	.LVL82:
 868 04ca 0028     		cmp	r0, #0
 869 04cc FAD0     		beq	.L31
 280:main.c        ****                     senal_temp=ADC_CountsTo_mVolts(senal_temp);
 870              		.loc 1 280 0
 871 04ce FFF7FEFF 		bl	ADC_GetResult16
 872              	.LVL83:
 873 04d2 434C     		ldr	r4, .L40+8
 874 04d4 2083     		strh	r0, [r4, #24]	@ movhi
 281:main.c        ****                     ADC_StopConvert();
 875              		.loc 1 281 0
 876 04d6 FFF7FEFF 		bl	ADC_CountsTo_mVolts
 877              	.LVL84:
 878 04da 2083     		strh	r0, [r4, #24]	@ movhi
 282:main.c        ****                     milivolt_temp=milivolt_temp+senal_temp;
 879              		.loc 1 282 0
 880 04dc FFF7FEFF 		bl	ADC_StopConvert
 881              	.LVL85:
 283:main.c        ****                     
 882              		.loc 1 283 0
 883 04e0 228B     		ldrh	r2, [r4, #24]
 884 04e2 E369     		ldr	r3, [r4, #28]
 885 04e4 1344     		add	r3, r3, r2
 886 04e6 E361     		str	r3, [r4, #28]
 285:main.c        ****                         contador_muestras=0; // se resetea la bandera
 887              		.loc 1 285 0
 888 04e8 E289     		ldrh	r2, [r4, #14]
 889 04ea B2F5FA7F 		cmp	r2, #500
 890 04ee 3BD1     		bne	.L29
 286:main.c        ****                         milivolt_h=milivolt_h/20; // se saca el promedio de las 20 muetras del peso
 891              		.loc 1 286 0
 892 04f0 0025     		movs	r5, #0
 893 04f2 E581     		strh	r5, [r4, #14]	@ movhi
 287:main.c        ****                         milivolt_temp=milivolt_temp/20;// se saca el promedio de las 20 muestras de
 894              		.loc 1 287 0
 895 04f4 6269     		ldr	r2, [r4, #20]
 896 04f6 4348     		ldr	r0, .L40+44
 897 04f8 A0FB0212 		umull	r1, r2, r0, r2
 898 04fc 1209     		lsrs	r2, r2, #4
 899 04fe 6261     		str	r2, [r4, #20]
 288:main.c        ****                             
 900              		.loc 1 288 0
 901 0500 A0FB0313 		umull	r1, r3, r0, r3
 902 0504 1809     		lsrs	r0, r3, #4
 903 0506 E061     		str	r0, [r4, #28]
 290:main.c        ****                         temperatura_medida=milivolt_temp*0.036;
 904              		.loc 1 290 0
 905 0508 424B     		ldr	r3, .L40+60
 906 050a A3FB0223 		umull	r2, r3, r3, r2
 907 050e 1B09     		lsrs	r3, r3, #4
 908 0510 414F     		ldr	r7, .L40+64
 909 0512 3B80     		strh	r3, [r7]	@ movhi
 291:main.c        ****                              
 910              		.loc 1 291 0
 911 0514 FFF7FEFF 		bl	__aeabi_ui2d
 912              	.LVL86:
 913 0518 2FA3     		adr	r3, .L40
ARM GAS  C:\Users\ADMH2\AppData\Local\Temp\ccVFDBrt.s 			page 26


 914 051a D3E90023 		ldrd	r2, [r3]
 915 051e FFF7FEFF 		bl	__aeabi_dmul
 916              	.LVL87:
 917 0522 3E4E     		ldr	r6, .L40+68
 918 0524 FFF7FEFF 		bl	__aeabi_d2uiz
 919              	.LVL88:
 920 0528 3080     		strh	r0, [r6]	@ movhi
 293:main.c        ****                         LCD_PrintString("humedad= ");
 921              		.loc 1 293 0
 922 052a 2946     		mov	r1, r5
 923 052c 0220     		movs	r0, #2
 924 052e FFF7FEFF 		bl	LCD_Position
 925              	.LVL89:
 294:main.c        ****                         LCD_PrintNumber(humedad_medida);
 926              		.loc 1 294 0
 927 0532 3B48     		ldr	r0, .L40+72
 928 0534 FFF7FEFF 		bl	LCD_PrintString
 929              	.LVL90:
 295:main.c        ****                         LCD_PrintString("%  ");
 930              		.loc 1 295 0
 931 0538 3888     		ldrh	r0, [r7]
 932 053a FFF7FEFF 		bl	LCD_PrintU32Number
 933              	.LVL91:
 296:main.c        ****                         milivolt_h=0;
 934              		.loc 1 296 0
 935 053e 3948     		ldr	r0, .L40+76
 936 0540 FFF7FEFF 		bl	LCD_PrintString
 937              	.LVL92:
 297:main.c        ****                         
 938              		.loc 1 297 0
 939 0544 6561     		str	r5, [r4, #20]
 299:main.c        ****                         LCD_PrintString("Temp= ");
 940              		.loc 1 299 0
 941 0546 2946     		mov	r1, r5
 942 0548 0320     		movs	r0, #3
 943 054a FFF7FEFF 		bl	LCD_Position
 944              	.LVL93:
 300:main.c        ****                         LCD_PrintNumber(temperatura_medida);
 945              		.loc 1 300 0
 946 054e 3648     		ldr	r0, .L40+80
 947 0550 FFF7FEFF 		bl	LCD_PrintString
 948              	.LVL94:
 301:main.c        ****                         LCD_PutChar(LCD_CUSTOM_0);
 949              		.loc 1 301 0
 950 0554 3088     		ldrh	r0, [r6]
 951 0556 FFF7FEFF 		bl	LCD_PrintU32Number
 952              	.LVL95:
 302:main.c        ****                         LCD_PrintString("F   ");
 953              		.loc 1 302 0
 954 055a 2846     		mov	r0, r5
 955 055c FFF7FEFF 		bl	LCD_PutChar
 956              	.LVL96:
 303:main.c        ****                         milivolt_temp=0;
 957              		.loc 1 303 0
 958 0560 3248     		ldr	r0, .L40+84
 959 0562 FFF7FEFF 		bl	LCD_PrintString
 960              	.LVL97:
ARM GAS  C:\Users\ADMH2\AppData\Local\Temp\ccVFDBrt.s 			page 27


 304:main.c        ****                     }
 961              		.loc 1 304 0
 962 0566 E561     		str	r5, [r4, #28]
 963              	.L29:
 308:main.c        ****                 alarma_temPeligro=1;
 964              		.loc 1 308 0
 965 0568 2C4B     		ldr	r3, .L40+68
 966 056a 1888     		ldrh	r0, [r3]
 967 056c 1D4B     		ldr	r3, .L40+12
 968 056e 9989     		ldrh	r1, [r3, #12]
 969 0570 8842     		cmp	r0, r1
 970 0572 08D9     		bls	.L32
 308:main.c        ****                 alarma_temPeligro=1;
 971              		.loc 1 308 0 is_stmt 0 discriminator 1
 972 0574 1A4B     		ldr	r3, .L40+8
 973 0576 93F82030 		ldrb	r3, [r3, #32]	@ zero_extendqisi2
 974 057a 23B9     		cbnz	r3, .L32
 309:main.c        ****             }
 975              		.loc 1 309 0 is_stmt 1
 976 057c 0122     		movs	r2, #1
 977 057e 184B     		ldr	r3, .L40+8
 978 0580 83F82120 		strb	r2, [r3, #33]
 979 0584 03E0     		b	.L33
 980              	.L32:
 312:main.c        ****             }
 981              		.loc 1 312 0
 982 0586 0022     		movs	r2, #0
 983 0588 154B     		ldr	r3, .L40+8
 984 058a 83F82120 		strb	r2, [r3, #33]
 985              	.L33:
 314:main.c        ****                 alarma_humPeligro=1;
 986              		.loc 1 314 0
 987 058e 224B     		ldr	r3, .L40+64
 988 0590 1A88     		ldrh	r2, [r3]
 989 0592 144B     		ldr	r3, .L40+12
 990 0594 DB89     		ldrh	r3, [r3, #14]
 991 0596 9A42     		cmp	r2, r3
 992 0598 08D9     		bls	.L34
 314:main.c        ****                 alarma_humPeligro=1;
 993              		.loc 1 314 0 is_stmt 0 discriminator 1
 994 059a 114C     		ldr	r4, .L40+8
 995 059c 94F82040 		ldrb	r4, [r4, #32]	@ zero_extendqisi2
 996 05a0 24B9     		cbnz	r4, .L34
 315:main.c        ****             }
 997              		.loc 1 315 0 is_stmt 1
 998 05a2 0125     		movs	r5, #1
 999 05a4 0E4C     		ldr	r4, .L40+8
 1000 05a6 84F82250 		strb	r5, [r4, #34]
 1001 05aa 03E0     		b	.L35
 1002              	.L34:
 318:main.c        ****             }
 1003              		.loc 1 318 0
 1004 05ac 0025     		movs	r5, #0
 1005 05ae 0C4C     		ldr	r4, .L40+8
 1006 05b0 84F82250 		strb	r5, [r4, #34]
 1007              	.L35:
 320:main.c        ****                 alarma_ambasPeligro=1;
ARM GAS  C:\Users\ADMH2\AppData\Local\Temp\ccVFDBrt.s 			page 28


 1008              		.loc 1 320 0
 1009 05b4 9A42     		cmp	r2, r3
 1010 05b6 7FF64BAD 		bls	.L28
 320:main.c        ****                 alarma_ambasPeligro=1;
 1011              		.loc 1 320 0 is_stmt 0 discriminator 1
 1012 05ba 8842     		cmp	r0, r1
 1013 05bc 7FF648AD 		bls	.L28
 320:main.c        ****                 alarma_ambasPeligro=1;
 1014              		.loc 1 320 0 discriminator 2
 1015 05c0 074B     		ldr	r3, .L40+8
 1016 05c2 93F82030 		ldrb	r3, [r3, #32]	@ zero_extendqisi2
 1017 05c6 002B     		cmp	r3, #0
 1018 05c8 7FF442AD 		bne	.L28
 321:main.c        ****             }
 1019              		.loc 1 321 0 is_stmt 1
 1020 05cc 0122     		movs	r2, #1
 1021 05ce 044B     		ldr	r3, .L40+8
 1022 05d0 83F82320 		strb	r2, [r3, #35]
 1023 05d4 3CE5     		b	.L28
 1024              	.L41:
 1025 05d6 00BF     		.align	3
 1026              	.L40:
 1027 05d8 3BDF4F8D 		.word	-1924145349
 1028 05dc 976EA23F 		.word	1067609751
 1029 05e0 00000000 		.word	.LANCHOR0
 1030 05e4 00000000 		.word	.LANCHOR1
 1031 05e8 00000000 		.word	iniciar_conteo
 1032 05ec 00000000 		.word	mostrar_EnCilolcd
 1033 05f0 00000000 		.word	sacar_adc
 1034 05f4 A8000000 		.word	.LC11
 1035 05f8 00000000 		.word	miliseg_crono
 1036 05fc 00000000 		.word	segundos_crono
 1037 0600 00000000 		.word	min_crono
 1038 0604 CDCCCCCC 		.word	-858993459
 1039 0608 00000000 		.word	encender_alarma_ambas
 1040 060c 00000000 		.word	ciclo_acabado
 1041 0610 BC000000 		.word	.LC12
 1042 0614 1F85EB51 		.word	1374389535
 1043 0618 00000000 		.word	humedad_medida
 1044 061c 00000000 		.word	temperatura_medida
 1045 0620 D0000000 		.word	.LC13
 1046 0624 DC000000 		.word	.LC14
 1047 0628 E0000000 		.word	.LC15
 1048 062c E8000000 		.word	.LC16
 1049              		.cfi_endproc
 1050              	.LFE63:
 1051              		.size	main, .-main
 1052              		.section	.text.CompararClave,"ax",%progbits
 1053              		.align	2
 1054              		.global	CompararClave
 1055              		.thumb
 1056              		.thumb_func
 1057              		.type	CompararClave, %function
 1058              	CompararClave:
 1059              	.LFB67:
 344:main.c        ****     
 345:main.c        ****     
ARM GAS  C:\Users\ADMH2\AppData\Local\Temp\ccVFDBrt.s 			page 29


 346:main.c        **** }
 347:main.c        **** 
 348:main.c        **** uint8 CompararClave(const uint8 *Ingresada, const uint8 *Original){ // Función para comparar clave
 1060              		.loc 1 348 0
 1061              		.cfi_startproc
 1062              		@ args = 0, pretend = 0, frame = 0
 1063              		@ frame_needed = 0, uses_anonymous_args = 0
 1064              		@ link register save eliminated.
 1065              	.LVL98:
 1066 0000 30B4     		push	{r4, r5}
 1067              		.cfi_def_cfa_offset 8
 1068              		.cfi_offset 4, -8
 1069              		.cfi_offset 5, -4
 1070              	.LVL99:
 349:main.c        ****     uint8 Aciertos=0;
 350:main.c        ****     uint8 m=0;
 351:main.c        ****     for(m=0;m<4;m++){
 1071              		.loc 1 351 0
 1072 0002 0023     		movs	r3, #0
 349:main.c        ****     uint8 Aciertos=0;
 1073              		.loc 1 349 0
 1074 0004 1D46     		mov	r5, r3
 1075              		.loc 1 351 0
 1076 0006 09E0     		b	.L43
 1077              	.LVL100:
 1078              	.L45:
 352:main.c        ****         if(*Ingresada==*Original){
 1079              		.loc 1 352 0
 1080 0008 0478     		ldrb	r4, [r0]	@ zero_extendqisi2
 1081 000a 0A78     		ldrb	r2, [r1]	@ zero_extendqisi2
 1082 000c 9442     		cmp	r4, r2
 1083 000e 01D1     		bne	.L44
 353:main.c        ****             Aciertos++;
 1084              		.loc 1 353 0
 1085 0010 0135     		adds	r5, r5, #1
 1086              	.LVL101:
 1087 0012 EDB2     		uxtb	r5, r5
 1088              	.LVL102:
 1089              	.L44:
 354:main.c        ****         }
 355:main.c        ****     Ingresada++;
 1090              		.loc 1 355 0 discriminator 2
 1091 0014 0130     		adds	r0, r0, #1
 1092              	.LVL103:
 356:main.c        ****     Original++;
 1093              		.loc 1 356 0 discriminator 2
 1094 0016 0131     		adds	r1, r1, #1
 1095              	.LVL104:
 351:main.c        ****         if(*Ingresada==*Original){
 1096              		.loc 1 351 0 discriminator 2
 1097 0018 0133     		adds	r3, r3, #1
 1098              	.LVL105:
 1099 001a DBB2     		uxtb	r3, r3
 1100              	.LVL106:
 1101              	.L43:
 351:main.c        ****         if(*Ingresada==*Original){
 1102              		.loc 1 351 0 is_stmt 0 discriminator 1
ARM GAS  C:\Users\ADMH2\AppData\Local\Temp\ccVFDBrt.s 			page 30


 1103 001c 032B     		cmp	r3, #3
 1104 001e F3D9     		bls	.L45
 357:main.c        ****     }    
 358:main.c        ****     if (Aciertos==4){ // Solo si la clave esta totalmente buena retorna 1
 1105              		.loc 1 358 0 is_stmt 1
 1106 0020 042D     		cmp	r5, #4
 1107 0022 01D1     		bne	.L47
 359:main.c        ****      return 1;
 1108              		.loc 1 359 0
 1109 0024 0120     		movs	r0, #1
 1110              	.LVL107:
 1111 0026 00E0     		b	.L46
 1112              	.LVL108:
 1113              	.L47:
 360:main.c        ****     }
 361:main.c        ****     else{
 362:main.c        ****     return 0;
 1114              		.loc 1 362 0
 1115 0028 0020     		movs	r0, #0
 1116              	.LVL109:
 1117              	.L46:
 363:main.c        ****     }
 364:main.c        **** }
 1118              		.loc 1 364 0
 1119 002a 30BC     		pop	{r4, r5}
 1120              		.cfi_restore 5
 1121              		.cfi_restore 4
 1122              		.cfi_def_cfa_offset 0
 1123              	.LVL110:
 1124 002c 7047     		bx	lr
 1125              		.cfi_endproc
 1126              	.LFE67:
 1127              		.size	CompararClave, .-CompararClave
 1128              		.global	apagador_alarma
 1129              		.comm	Start,12,4
 1130              		.comm	temperatura_medida,2,2
 1131              		.comm	humedad_medida,2,2
 1132              		.global	SEGUNDOS
 1133              		.comm	bot1,1,1
 1134              		.global	contador_muestras
 1135              		.comm	encender_alarma_ambas,1,1
 1136              		.global	alarma_yapasotiempo
 1137              		.global	alarma_ambasPeligro
 1138              		.global	alarma_humPeligro
 1139              		.global	alarma_temPeligro
 1140              		.global	limite_hum
 1141              		.global	limite_temp
 1142              		.comm	sacar_adc,1,1
 1143              		.comm	mostrar_EnCilolcd,1,1
 1144              		.comm	iniciar_conteo,1,1
 1145              		.comm	miliseg_crono,2,2
 1146              		.comm	segundos_crono,2,2
 1147              		.comm	min_crono,2,2
 1148              		.global	valores_confirmados
 1149              		.global	tiempo_in
 1150              		.global	humedad_in
 1151              		.global	temp_in
ARM GAS  C:\Users\ADMH2\AppData\Local\Temp\ccVFDBrt.s 			page 31


 1152              		.global	tiempo_anadido
 1153              		.global	humedad_anadida
 1154              		.global	temperatura_anadida
 1155              		.global	ingresando_valores
 1156              		.comm	humedad,2,2
 1157              		.comm	temp,2,2
 1158              		.global	ClaveOriginal
 1159              		.comm	ClaveIngresada,4,4
 1160              		.global	puerta_cerrada
 1161              		.global	finishpass
 1162              		.global	milivolt_temp
 1163              		.global	milivolt_h
 1164              		.global	senal_temp
 1165              		.global	senal_hume
 1166              		.comm	ciclo_acabado,1,1
 1167              		.global	comparado
 1168              		.global	counterOut
 1169              		.global	salida
 1170              		.global	ESCORRECTO
 1171              		.global	ohno
 1172              		.global	correcto
 1173              		.global	add
 1174              		.global	ms2
 1175              		.global	ms1
 1176              		.global	pos
 1177              		.global	tecladoband
 1178              		.global	potband
 1179              		.global	countpot
 1180              		.comm	tecla,1,1
 1181              		.global	angulo
 1182              		.global	tipounidad
 1183              		.global	valpot
 1184 002e 00BF     		.data
 1185              		.align	2
 1186              		.set	.LANCHOR1,. + 0
 1187              		.type	valores_confirmados, %object
 1188              		.size	valores_confirmados, 1
 1189              	valores_confirmados:
 1190 0000 01       		.byte	1
 1191 0001 000000   		.space	3
 1192              		.type	temp_in, %object
 1193              		.size	temp_in, 4
 1194              	temp_in:
 1195 0004 02000000 		.word	2
 1196              		.type	tiempo_in, %object
 1197              		.size	tiempo_in, 4
 1198              	tiempo_in:
 1199 0008 02000000 		.word	2
 1200              		.type	limite_temp, %object
 1201              		.size	limite_temp, 2
 1202              	limite_temp:
 1203 000c 7800     		.short	120
 1204              		.type	limite_hum, %object
 1205              		.size	limite_hum, 2
 1206              	limite_hum:
 1207 000e 5000     		.short	80
 1208              		.type	ClaveOriginal, %object
ARM GAS  C:\Users\ADMH2\AppData\Local\Temp\ccVFDBrt.s 			page 32


 1209              		.size	ClaveOriginal, 4
 1210              	ClaveOriginal:
 1211 0010 01       		.byte	1
 1212 0011 02       		.byte	2
 1213 0012 02       		.byte	2
 1214 0013 03       		.byte	3
 1215              		.section	.rodata.str1.4,"aMS",%progbits,1
 1216              		.align	2
 1217              	.LC0:
 1218 0000 494E4355 		.ascii	"INCUBADORA LISTA\000"
 1218      4241444F 
 1218      5241204C 
 1218      49535441 
 1218      00
 1219 0011 000000   		.space	3
 1220              	.LC1:
 1221 0014 43202D20 		.ascii	"C - CERRAR PUERTA\000"
 1221      43455252 
 1221      41522050 
 1221      55455254 
 1221      4100
 1222 0026 0000     		.space	2
 1223              	.LC2:
 1224 0028 42202D20 		.ascii	"B - CONFIGURAR\000"
 1224      434F4E46 
 1224      49475552 
 1224      415200
 1225 0037 00       		.space	1
 1226              	.LC3:
 1227 0038 50756572 		.ascii	"Puerta cerrada\000"
 1227      74612063 
 1227      65727261 
 1227      646100
 1228 0047 00       		.space	1
 1229              	.LC4:
 1230 0048 41202D20 		.ascii	"A - ABRIR PUERTA\000"
 1230      41425249 
 1230      52205055 
 1230      45525441 
 1230      00
 1231 0059 000000   		.space	3
 1232              	.LC5:
 1233 005c 50756572 		.ascii	"Puerta abierta\000"
 1233      74612061 
 1233      62696572 
 1233      746100
 1234 006b 00       		.space	1
 1235              	.LC6:
 1236 006c 43202D20 		.ascii	"C - CERRAR\000"
 1236      43455252 
 1236      415200
 1237 0077 00       		.space	1
 1238              	.LC7:
 1239 0078 496E6772 		.ascii	"Ingrese los valores:\000"
 1239      65736520 
 1239      6C6F7320 
 1239      76616C6F 
ARM GAS  C:\Users\ADMH2\AppData\Local\Temp\ccVFDBrt.s 			page 33


 1239      7265733A 
 1240 008d 000000   		.space	3
 1241              	.LC8:
 1242 0090 54454D50 		.ascii	"TEMP: \000"
 1242      3A2000
 1243 0097 00       		.space	1
 1244              	.LC9:
 1245 0098 48554D45 		.ascii	"HUME: \000"
 1245      3A2000
 1246 009f 00       		.space	1
 1247              	.LC10:
 1248 00a0 54696D65 		.ascii	"Time: \000"
 1248      3A2000
 1249 00a7 00       		.space	1
 1250              	.LC11:
 1251 00a8 454E2043 		.ascii	"EN CICLO - NO ABRIR\000"
 1251      49434C4F 
 1251      202D204E 
 1251      4F204142 
 1251      52495200 
 1252              	.LC12:
 1253 00bc 52455449 		.ascii	"RETIRE LAS MUESTRAS\000"
 1253      5245204C 
 1253      4153204D 
 1253      55455354 
 1253      52415300 
 1254              	.LC13:
 1255 00d0 68756D65 		.ascii	"humedad= \000"
 1255      6461643D 
 1255      2000
 1256 00da 0000     		.space	2
 1257              	.LC14:
 1258 00dc 25202000 		.ascii	"%  \000"
 1259              	.LC15:
 1260 00e0 54656D70 		.ascii	"Temp= \000"
 1260      3D2000
 1261 00e7 00       		.space	1
 1262              	.LC16:
 1263 00e8 46202020 		.ascii	"F   \000"
 1263      00
 1264              		.bss
 1265              		.align	2
 1266              		.set	.LANCHOR0,. + 0
 1267              		.type	add, %object
 1268              		.size	add, 1
 1269              	add:
 1270 0000 00       		.space	1
 1271              		.type	ms1, %object
 1272              		.size	ms1, 1
 1273              	ms1:
 1274 0001 00       		.space	1
 1275              		.type	ms2, %object
 1276              		.size	ms2, 1
 1277              	ms2:
 1278 0002 00       		.space	1
 1279              		.type	puerta_cerrada, %object
 1280              		.size	puerta_cerrada, 1
ARM GAS  C:\Users\ADMH2\AppData\Local\Temp\ccVFDBrt.s 			page 34


 1281              	puerta_cerrada:
 1282 0003 00       		.space	1
 1283              		.type	ingresando_valores, %object
 1284              		.size	ingresando_valores, 1
 1285              	ingresando_valores:
 1286 0004 00       		.space	1
 1287              		.type	temperatura_anadida, %object
 1288              		.size	temperatura_anadida, 1
 1289              	temperatura_anadida:
 1290 0005 00       		.space	1
 1291              		.type	humedad_anadida, %object
 1292              		.size	humedad_anadida, 1
 1293              	humedad_anadida:
 1294 0006 00       		.space	1
 1295 0007 00       		.space	1
 1296              		.type	humedad_in, %object
 1297              		.size	humedad_in, 4
 1298              	humedad_in:
 1299 0008 00000000 		.space	4
 1300              		.type	tiempo_anadido, %object
 1301              		.size	tiempo_anadido, 1
 1302              	tiempo_anadido:
 1303 000c 00       		.space	1
 1304 000d 00       		.space	1
 1305              		.type	contador_muestras, %object
 1306              		.size	contador_muestras, 2
 1307              	contador_muestras:
 1308 000e 0000     		.space	2
 1309              		.type	senal_hume, %object
 1310              		.size	senal_hume, 2
 1311              	senal_hume:
 1312 0010 0000     		.space	2
 1313 0012 0000     		.space	2
 1314              		.type	milivolt_h, %object
 1315              		.size	milivolt_h, 4
 1316              	milivolt_h:
 1317 0014 00000000 		.space	4
 1318              		.type	senal_temp, %object
 1319              		.size	senal_temp, 2
 1320              	senal_temp:
 1321 0018 0000     		.space	2
 1322 001a 0000     		.space	2
 1323              		.type	milivolt_temp, %object
 1324              		.size	milivolt_temp, 4
 1325              	milivolt_temp:
 1326 001c 00000000 		.space	4
 1327              		.type	apagador_alarma, %object
 1328              		.size	apagador_alarma, 1
 1329              	apagador_alarma:
 1330 0020 00       		.space	1
 1331              		.type	alarma_temPeligro, %object
 1332              		.size	alarma_temPeligro, 1
 1333              	alarma_temPeligro:
 1334 0021 00       		.space	1
 1335              		.type	alarma_humPeligro, %object
 1336              		.size	alarma_humPeligro, 1
 1337              	alarma_humPeligro:
ARM GAS  C:\Users\ADMH2\AppData\Local\Temp\ccVFDBrt.s 			page 35


 1338 0022 00       		.space	1
 1339              		.type	alarma_ambasPeligro, %object
 1340              		.size	alarma_ambasPeligro, 1
 1341              	alarma_ambasPeligro:
 1342 0023 00       		.space	1
 1343              		.type	SEGUNDOS, %object
 1344              		.size	SEGUNDOS, 2
 1345              	SEGUNDOS:
 1346 0024 0000     		.space	2
 1347              		.type	alarma_yapasotiempo, %object
 1348              		.size	alarma_yapasotiempo, 1
 1349              	alarma_yapasotiempo:
 1350 0026 00       		.space	1
 1351              		.type	finishpass, %object
 1352              		.size	finishpass, 1
 1353              	finishpass:
 1354 0027 00       		.space	1
 1355              		.type	comparado, %object
 1356              		.size	comparado, 1
 1357              	comparado:
 1358 0028 00       		.space	1
 1359 0029 000000   		.space	3
 1360              		.type	counterOut, %object
 1361              		.size	counterOut, 4
 1362              	counterOut:
 1363 002c 00000000 		.space	4
 1364              		.type	salida, %object
 1365              		.size	salida, 1
 1366              	salida:
 1367 0030 00       		.space	1
 1368              		.type	ESCORRECTO, %object
 1369              		.size	ESCORRECTO, 1
 1370              	ESCORRECTO:
 1371 0031 00       		.space	1
 1372              		.type	ohno, %object
 1373              		.size	ohno, 1
 1374              	ohno:
 1375 0032 00       		.space	1
 1376              		.type	correcto, %object
 1377              		.size	correcto, 1
 1378              	correcto:
 1379 0033 00       		.space	1
 1380              		.type	pos, %object
 1381              		.size	pos, 1
 1382              	pos:
 1383 0034 00       		.space	1
 1384              		.type	tecladoband, %object
 1385              		.size	tecladoband, 1
 1386              	tecladoband:
 1387 0035 00       		.space	1
 1388              		.type	potband, %object
 1389              		.size	potband, 1
 1390              	potband:
 1391 0036 00       		.space	1
 1392              		.type	countpot, %object
 1393              		.size	countpot, 1
 1394              	countpot:
ARM GAS  C:\Users\ADMH2\AppData\Local\Temp\ccVFDBrt.s 			page 36


 1395 0037 00       		.space	1
 1396              		.type	angulo, %object
 1397              		.size	angulo, 4
 1398              	angulo:
 1399 0038 00000000 		.space	4
 1400              		.type	tipounidad, %object
 1401              		.size	tipounidad, 1
 1402              	tipounidad:
 1403 003c 00       		.space	1
 1404 003d 00       		.space	1
 1405              		.type	valpot, %object
 1406              		.size	valpot, 2
 1407              	valpot:
 1408 003e 0000     		.space	2
 1409              		.text
 1410              	.Letext0:
 1411              		.file 2 "c:\\program files (x86)\\cypress\\psoc creator\\4.4\\psoc creator\\import\\gnu\\arm\\5.4.
 1412              		.file 3 "c:\\program files (x86)\\cypress\\psoc creator\\4.4\\psoc creator\\import\\gnu\\arm\\5.4.
 1413              		.file 4 "Generated_Source\\PSoC5/cytypes.h"
 1414              		.file 5 "Generated_Source\\PSoC5/RTC.h"
 1415              		.file 6 "Generated_Source\\PSoC5/LCD.h"
 1416              		.file 7 "Generated_Source\\PSoC5/core_cm3.h"
 1417              		.file 8 "Generated_Source\\PSoC5/PWM.h"
 1418              		.file 9 "Generated_Source\\PSoC5/CyLib.h"
 1419              		.file 10 "Generated_Source\\PSoC5/led.h"
 1420              		.file 11 "Generated_Source\\PSoC5/ADC.h"
 1421              		.file 12 "Generated_Source\\PSoC5/Contaor.h"
 1422              		.file 13 "Generated_Source\\PSoC5/AMux_1.h"
 1423              		.file 14 "Generated_Source\\PSoC5/LED_Driver_1.h"
 1424              		.file 15 "Generated_Source\\PSoC5/ISR_Key.h"
 1425              		.file 16 "Generated_Source\\PSoC5/UanMS.h"
 1426              		.file 17 "Generated_Source\\PSoC5/logoutisr.h"