ARM GAS  C:\Users\ADMH2\AppData\Local\Temp\ccwwRU7z.s 			page 1


   1              		.syntax unified
   2              		.cpu cortex-m3
   3              		.fpu softvfp
   4              		.eabi_attribute 20, 1
   5              		.eabi_attribute 21, 1
   6              		.eabi_attribute 23, 3
   7              		.eabi_attribute 24, 1
   8              		.eabi_attribute 25, 1
   9              		.eabi_attribute 26, 1
  10              		.eabi_attribute 30, 1
  11              		.eabi_attribute 34, 1
  12              		.eabi_attribute 18, 4
  13              		.thumb
  14              		.syntax unified
  15              		.file	"Teclado_MatrixKeyboard.c"
  16              		.text
  17              	.Ltext0:
  18              		.cfi_sections	.debug_frame
  19              		.section	.text.Teclado_Start,"ax",%progbits
  20              		.align	2
  21              		.global	Teclado_Start
  22              		.thumb
  23              		.thumb_func
  24              		.type	Teclado_Start, %function
  25              	Teclado_Start:
  26              	.LFB63:
  27              		.file 1 "Generated_Source\\PSoC5\\Teclado_MatrixKeyboard.c"
   1:Generated_Source\PSoC5/Teclado_MatrixKeyboard.c **** /* ========================================
   2:Generated_Source\PSoC5/Teclado_MatrixKeyboard.c ****  *
   3:Generated_Source\PSoC5/Teclado_MatrixKeyboard.c ****  * Copyright YOUR COMPANY, THE YEAR
   4:Generated_Source\PSoC5/Teclado_MatrixKeyboard.c ****  * All Rights Reserved
   5:Generated_Source\PSoC5/Teclado_MatrixKeyboard.c ****  * UNPUBLISHED, LICENSED SOFTWARE.
   6:Generated_Source\PSoC5/Teclado_MatrixKeyboard.c ****  *
   7:Generated_Source\PSoC5/Teclado_MatrixKeyboard.c ****  * CONFIDENTIAL AND PROPRIETARY INFORMATION
   8:Generated_Source\PSoC5/Teclado_MatrixKeyboard.c ****  * WHICH IS THE PROPERTY OF your company.
   9:Generated_Source\PSoC5/Teclado_MatrixKeyboard.c ****  *
  10:Generated_Source\PSoC5/Teclado_MatrixKeyboard.c ****  * ========================================
  11:Generated_Source\PSoC5/Teclado_MatrixKeyboard.c **** */
  12:Generated_Source\PSoC5/Teclado_MatrixKeyboard.c **** 
  13:Generated_Source\PSoC5/Teclado_MatrixKeyboard.c **** /* [] END OF FILE */
  14:Generated_Source\PSoC5/Teclado_MatrixKeyboard.c **** 
  15:Generated_Source\PSoC5/Teclado_MatrixKeyboard.c **** #include "project.h"
  16:Generated_Source\PSoC5/Teclado_MatrixKeyboard.c **** 
  17:Generated_Source\PSoC5/Teclado_MatrixKeyboard.c **** void Teclado_Start(void){
  28              		.loc 1 17 0
  29              		.cfi_startproc
  30              		@ args = 0, pretend = 0, frame = 0
  31              		@ frame_needed = 0, uses_anonymous_args = 0
  32 0000 08B5     		push	{r3, lr}
  33              		.cfi_def_cfa_offset 8
  34              		.cfi_offset 3, -8
  35              		.cfi_offset 14, -4
  18:Generated_Source\PSoC5/Teclado_MatrixKeyboard.c ****     Teclado_Row_Write(0b1111);
  36              		.loc 1 18 0
  37 0002 0F20     		movs	r0, #15
  38 0004 FFF7FEFF 		bl	Teclado_Row_Write
  39              	.LVL0:
ARM GAS  C:\Users\ADMH2\AppData\Local\Temp\ccwwRU7z.s 			page 2


  19:Generated_Source\PSoC5/Teclado_MatrixKeyboard.c ****     Teclado_Column_Write(0b0000);
  40              		.loc 1 19 0
  41 0008 0020     		movs	r0, #0
  42 000a FFF7FEFF 		bl	Teclado_Column_Write
  43              	.LVL1:
  44 000e 08BD     		pop	{r3, pc}
  45              		.cfi_endproc
  46              	.LFE63:
  47              		.size	Teclado_Start, .-Teclado_Start
  48              		.section	.text.Teclado_AsignarTecla,"ax",%progbits
  49              		.align	2
  50              		.global	Teclado_AsignarTecla
  51              		.thumb
  52              		.thumb_func
  53              		.type	Teclado_AsignarTecla, %function
  54              	Teclado_AsignarTecla:
  55              	.LFB64:
  20:Generated_Source\PSoC5/Teclado_MatrixKeyboard.c ****     }
  21:Generated_Source\PSoC5/Teclado_MatrixKeyboard.c **** 
  22:Generated_Source\PSoC5/Teclado_MatrixKeyboard.c **** uint8 Teclado_AsignarTecla(void)
  23:Generated_Source\PSoC5/Teclado_MatrixKeyboard.c **** {
  56              		.loc 1 23 0
  57              		.cfi_startproc
  58              		@ args = 0, pretend = 0, frame = 16
  59              		@ frame_needed = 0, uses_anonymous_args = 0
  60 0000 30B5     		push	{r4, r5, lr}
  61              		.cfi_def_cfa_offset 12
  62              		.cfi_offset 4, -12
  63              		.cfi_offset 5, -8
  64              		.cfi_offset 14, -4
  65 0002 85B0     		sub	sp, sp, #20
  66              		.cfi_def_cfa_offset 32
  24:Generated_Source\PSoC5/Teclado_MatrixKeyboard.c ****     uint8 Teclado_Key[4][4] = {
  67              		.loc 1 24 0
  68 0004 144B     		ldr	r3, .L5
  69 0006 6C46     		mov	r4, sp
  70 0008 1868     		ldr	r0, [r3]	@ unaligned
  71 000a 5968     		ldr	r1, [r3, #4]	@ unaligned
  72 000c 9A68     		ldr	r2, [r3, #8]	@ unaligned
  73 000e DB68     		ldr	r3, [r3, #12]	@ unaligned
  74 0010 0FC4     		stmia	r4!, {r0, r1, r2, r3}
  25:Generated_Source\PSoC5/Teclado_MatrixKeyboard.c **** 		{1,2,3,'A'},//Row 1
  26:Generated_Source\PSoC5/Teclado_MatrixKeyboard.c **** 		{4,5,6,'B'},//Row 2
  27:Generated_Source\PSoC5/Teclado_MatrixKeyboard.c **** 		{7,8,9,'C'},//Row 3
  28:Generated_Source\PSoC5/Teclado_MatrixKeyboard.c **** 		{'*',0,'#','D'}//Row 4
  29:Generated_Source\PSoC5/Teclado_MatrixKeyboard.c ****   	};
  30:Generated_Source\PSoC5/Teclado_MatrixKeyboard.c ****     
  31:Generated_Source\PSoC5/Teclado_MatrixKeyboard.c **** 	uint8 Button;
  32:Generated_Source\PSoC5/Teclado_MatrixKeyboard.c **** 	uint8 fila,columna;
  33:Generated_Source\PSoC5/Teclado_MatrixKeyboard.c ****     fila = (Teclado_Status_Reg_Read() & 0b11); //Row extract
  75              		.loc 1 33 0
  76 0012 FFF7FEFF 		bl	Teclado_Status_Reg_Read
  77              	.LVL2:
  78 0016 00F00304 		and	r4, r0, #3
  79              	.LVL3:
  34:Generated_Source\PSoC5/Teclado_MatrixKeyboard.c ****     //Search for row
  35:Generated_Source\PSoC5/Teclado_MatrixKeyboard.c ****     Teclado_Column_Write(0b1111);
ARM GAS  C:\Users\ADMH2\AppData\Local\Temp\ccwwRU7z.s 			page 3


  80              		.loc 1 35 0
  81 001a 0F20     		movs	r0, #15
  82 001c FFF7FEFF 		bl	Teclado_Column_Write
  83              	.LVL4:
  36:Generated_Source\PSoC5/Teclado_MatrixKeyboard.c ****     Teclado_Row_Write(0b0000);
  84              		.loc 1 36 0
  85 0020 0020     		movs	r0, #0
  86 0022 FFF7FEFF 		bl	Teclado_Row_Write
  87              	.LVL5:
  37:Generated_Source\PSoC5/Teclado_MatrixKeyboard.c ****      CyDelayUs(10);
  88              		.loc 1 37 0
  89 0026 0A20     		movs	r0, #10
  90 0028 FFF7FEFF 		bl	CyDelayUs
  91              	.LVL6:
  38:Generated_Source\PSoC5/Teclado_MatrixKeyboard.c ****     
  39:Generated_Source\PSoC5/Teclado_MatrixKeyboard.c ****     columna = ((Teclado_Status_Reg_Read() & 0b1100) >> 2);
  92              		.loc 1 39 0
  93 002c FFF7FEFF 		bl	Teclado_Status_Reg_Read
  94              	.LVL7:
  95 0030 C0F38105 		ubfx	r5, r0, #2, #2
  96              	.LVL8:
  40:Generated_Source\PSoC5/Teclado_MatrixKeyboard.c ****     //Back to normal
  41:Generated_Source\PSoC5/Teclado_MatrixKeyboard.c ****     Teclado_Row_Write(0b1111);
  97              		.loc 1 41 0
  98 0034 0F20     		movs	r0, #15
  99 0036 FFF7FEFF 		bl	Teclado_Row_Write
 100              	.LVL9:
  42:Generated_Source\PSoC5/Teclado_MatrixKeyboard.c ****     Teclado_Column_Write(0b0000);
 101              		.loc 1 42 0
 102 003a 0020     		movs	r0, #0
 103 003c FFF7FEFF 		bl	Teclado_Column_Write
 104              	.LVL10:
  43:Generated_Source\PSoC5/Teclado_MatrixKeyboard.c ****     CyDelayUs(10);
 105              		.loc 1 43 0
 106 0040 0A20     		movs	r0, #10
 107 0042 FFF7FEFF 		bl	CyDelayUs
 108              	.LVL11:
  44:Generated_Source\PSoC5/Teclado_MatrixKeyboard.c **** 	Button=Teclado_Key[fila][columna];//Assign Character
 109              		.loc 1 44 0
 110 0046 04AB     		add	r3, sp, #16
 111 0048 03EB8404 		add	r4, r3, r4, lsl #2
 112              	.LVL12:
 113 004c 2C44     		add	r4, r4, r5
 114              	.LVL13:
  45:Generated_Source\PSoC5/Teclado_MatrixKeyboard.c **** 	return Button;
  46:Generated_Source\PSoC5/Teclado_MatrixKeyboard.c **** }
 115              		.loc 1 46 0
 116 004e 14F8100C 		ldrb	r0, [r4, #-16]	@ zero_extendqisi2
 117 0052 05B0     		add	sp, sp, #20
 118              		.cfi_def_cfa_offset 12
 119              		@ sp needed
 120 0054 30BD     		pop	{r4, r5, pc}
 121              	.LVL14:
 122              	.L6:
 123 0056 00BF     		.align	2
 124              	.L5:
 125 0058 00000000 		.word	.LANCHOR0
ARM GAS  C:\Users\ADMH2\AppData\Local\Temp\ccwwRU7z.s 			page 4


 126              		.cfi_endproc
 127              	.LFE64:
 128              		.size	Teclado_AsignarTecla, .-Teclado_AsignarTecla
 129              		.section	.rodata
 130              		.align	2
 131              		.set	.LANCHOR0,. + 0
 132              	.LC0:
 133 0000 01       		.byte	1
 134 0001 02       		.byte	2
 135 0002 03       		.byte	3
 136 0003 41       		.byte	65
 137 0004 04       		.byte	4
 138 0005 05       		.byte	5
 139 0006 06       		.byte	6
 140 0007 42       		.byte	66
 141 0008 07       		.byte	7
 142 0009 08       		.byte	8
 143 000a 09       		.byte	9
 144 000b 43       		.byte	67
 145 000c 2A       		.byte	42
 146 000d 00       		.byte	0
 147 000e 23       		.byte	35
 148 000f 44       		.byte	68
 149              		.text
 150              	.Letext0:
 151              		.file 2 "c:\\program files (x86)\\cypress\\psoc creator\\4.4\\psoc creator\\import\\gnu\\arm\\5.4.
 152              		.file 3 "c:\\program files (x86)\\cypress\\psoc creator\\4.4\\psoc creator\\import\\gnu\\arm\\5.4.
 153              		.file 4 "Generated_Source\\PSoC5\\cytypes.h"
 154              		.file 5 "Generated_Source\\PSoC5\\Teclado_Row.h"
 155              		.file 6 "Generated_Source\\PSoC5\\Teclado_Column.h"
 156              		.file 7 "Generated_Source\\PSoC5\\Teclado_Status_Reg.h"
 157              		.file 8 "Generated_Source\\PSoC5\\CyLib.h"
 158              		.file 9 "Generated_Source\\PSoC5/core_cm3.h"